L251 LINKER/LOCATER V4.66.93.0                                                          05/26/2024  22:09:54  PAGE 1


L251 LINKER/LOCATER V4.66.93.0, INVOKED BY:
E:\_APP\KEIL5\C251\BIN\L251.EXE .\Objects\LQ_GPIO_LED.obj, .\Objects\LQ_GPIO_KEY.obj, .\Objects\LQ_OLED096.obj, .\Object
>> s\LQ_IIC_Gyro.obj, .\Objects\ANO_DT.obj, .\Objects\LQ_SPI_Gyro.obj, .\Objects\LQ_IIC_VL53.obj, .\Objects\LQ_CCD.obj, 
>> .\Objects\LQ_UART.obj, .\Objects\LQ_Encoder.obj, .\Objects\LQ_TIMER.obj, .\Objects\LQ_MotorServo.obj, .\Objects\LQ_AD
>> C.obj, .\Objects\LQ_GPIO_EXIT.obj, .\Objects\LQ_SPI_soft.obj, .\Objects\LQ_SOFTI2C.obj, .\Objects\main.obj TO .\Objec
>> ts\LQ_STC32lib PRINT (.\Listings\LQ_STC32lib.map) CASE DISABLEWARNING (16, 57) REMOVEUNUSED CLASSES (EDATA (0X0-0XFFF
>> ), HDATA (0X0-0XFFF))


CPU MODE:     251 SOURCE MODE
INTR FRAME:   2 BYTES SAVED ON INTERRUPT
MEMORY MODEL: XSMALL WITH FLOATING POINT ARITHMETIC


INPUT MODULES INCLUDED:
  .\Objects\LQ_GPIO_LED.obj (LQ_GPIO_LED)
         COMMENT TYPE 0: C251 V5.60.0
  .\Objects\LQ_GPIO_KEY.obj (LQ_GPIO_KEY)
         COMMENT TYPE 0: C251 V5.60.0
  .\Objects\LQ_OLED096.obj (LQ_OLED096)
         COMMENT TYPE 0: C251 V5.60.0
  .\Objects\LQ_IIC_Gyro.obj (LQ_IIC_Gyro)
         COMMENT TYPE 0: C251 V5.60.0
  .\Objects\ANO_DT.obj (ANO_DT)
         COMMENT TYPE 0: C251 V5.60.0
  .\Objects\LQ_SPI_Gyro.obj (LQ_SPI_Gyro)
         COMMENT TYPE 0: C251 V5.60.0
  .\Objects\LQ_IIC_VL53.obj (LQ_IIC_VL53)
         COMMENT TYPE 0: C251 V5.60.0
  .\Objects\LQ_CCD.obj (LQ_CCD)
         COMMENT TYPE 0: C251 V5.60.0
  .\Objects\LQ_UART.obj (LQ_UART)
         COMMENT TYPE 0: C251 V5.60.0
  .\Objects\LQ_Encoder.obj (LQ_Encoder)
         COMMENT TYPE 0: C251 V5.60.0
  .\Objects\LQ_TIMER.obj (LQ_TIMER)
         COMMENT TYPE 0: C251 V5.60.0
  .\Objects\LQ_MotorServo.obj (LQ_MotorServo)
         COMMENT TYPE 0: C251 V5.60.0
  .\Objects\LQ_ADC.obj (LQ_ADC)
         COMMENT TYPE 0: C251 V5.60.0
  .\Objects\LQ_GPIO_EXIT.obj (LQ_GPIO_EXIT)
         COMMENT TYPE 0: C251 V5.60.0
  .\Objects\LQ_SPI_soft.obj (LQ_SPI_soft)
         COMMENT TYPE 0: C251 V5.60.0
  .\Objects\LQ_SOFTI2C.obj (LQ_SOFTI2C)
         COMMENT TYPE 0: C251 V5.60.0
  .\Objects\main.obj (main)
         COMMENT TYPE 0: C251 V5.60.0
  E:\_APP\KEIL5\C251\LIB\C2SFPXS.LIB (?C?FPADD)
         COMMENT TYPE 0: A251 V4.69.6.0
  E:\_APP\KEIL5\C251\LIB\C2SFPXS.LIB (?C?FPDIV)
         COMMENT TYPE 0: A251 V4.69.6.0
  E:\_APP\KEIL5\C251\LIB\C2SFPXS.LIB (?C?FCAST)
         COMMENT TYPE 0: A251 V4.69.6.0
  E:\_APP\KEIL5\C251\LIB\C2SFPXS.LIB (?C?CASTF)
         COMMENT TYPE 0: A251 V4.69.6.0
  E:\_APP\KEIL5\C251\LIB\C2SFPXS.LIB (SPRINTF)
         COMMENT TYPE 0: A251 V4.69.6.0
  E:\_APP\KEIL5\C251\LIB\C2SFPXS.LIB (?C?FPGETOPN)
         COMMENT TYPE 0: A251 V4.69.6.0
  E:\_APP\KEIL5\C251\LIB\C2SFPXS.LIB (?C?PRNFMT)
         COMMENT TYPE 0: A251 V4.69.6.0
  E:\_APP\KEIL5\C251\LIB\C2SFPXS.LIB (?C?FPCONVERT)
         COMMENT TYPE 0: A251 V4.69.6.0
  E:\_APP\KEIL5\C251\LIB\C2SFPXS.LIB (?C?FPMUL)
L251 LINKER/LOCATER V4.66.93.0                                                        05/26/2024  22:09:54  PAGE 2


         COMMENT TYPE 0: A251 V4.69.6.0
  E:\_APP\KEIL5\C251\LIB\C2SFPXS.LIB (?C?FTNPWR)
         COMMENT TYPE 0: A251 V4.69.6.0
  E:\_APP\KEIL5\C251\LIB\C2SXS.LIB (?C_START)
         COMMENT TYPE 0: A251 V4.69.6.0
  E:\_APP\KEIL5\C251\LIB\C2SXS.LIB (?C?INITEDATA)
         COMMENT TYPE 0: A251 V4.69.6.0
  E:\_APP\KEIL5\C251\LIB\C2SXS.LIB (?C?INITHDATA)
         COMMENT TYPE 0: A251 V4.69.6.0
  E:\_APP\KEIL5\C251\LIB\C2SXS.LIB (?C?SIDIV)
         COMMENT TYPE 0: A251 V4.69.6.0
  E:\_APP\KEIL5\C251\LIB\C2SXS.LIB (?C?LIMUL)
         COMMENT TYPE 0: A251 V4.69.6.0
  E:\_APP\KEIL5\C251\LIB\C2SXS.LIB (?C?ULDIV)
         COMMENT TYPE 0: A251 V4.69.6.0
  E:\_APP\KEIL5\C251\LIB\C2SXS.LIB (?C?SLDIV)
         COMMENT TYPE 0: A251 V4.69.6.0
  E:\_APP\KEIL5\C251\LIB\C2SXS.LIB (?C?BMOVENP)
         COMMENT TYPE 0: A251 V4.69.6.0
  E:\_APP\KEIL5\C251\LIB\C2SXS.LIB (?C?INITEDATA_END)
         COMMENT TYPE 0: A251 V4.69.6.0
  E:\_APP\KEIL5\C251\LIB\C2SXS.LIB (?C?INITHDATA_END)
         COMMENT TYPE 0: A251 V4.69.6.0


ACTIVE MEMORY CLASSES OF MODULE:  .\Objects\LQ_STC32lib (LQ_GPIO_LED)

BASE        START       END         USED      MEMORY CLASS
==========================================================
000000H     000000H     000FFFH     00021BH   EDATA
000000H     000000H     000FFFH               HDATA
FF0000H     FF0000H     FFFFFFH     001629H   CODE
000000H     FF0000H     FFFFFFH     0011DAH   HCONST
010000H     010000H     01FFFFH     000001H   XDATA
000020H.0   000020H.0   00002FH.7   000000H.1 BIT
FF0000H     FF0000H     FFFFFFH     000004H   CONST
000000H     000000H     00007FH     000008H   DATA


MEMORY MAP OF MODULE:  .\Objects\LQ_STC32lib (LQ_GPIO_LED)


START     STOP      LENGTH    ALIGN  RELOC    MEMORY CLASS   SEGMENT NAME
=========================================================================
000000H   000007H   000008H   ---    AT..     DATA           "REG BANK 0"
000008H   00001FH   000018H   BYTE   UNIT     EDATA          ?ED?LQ_SPI_GYRO
000020H.0 000020H.0 000000H.1 BIT    UNIT     BIT            ?BI?LQ_UART
000020H.1 000020H   000000H.7 ---    ---      **GAP**
000021H   000064H   000044H   BYTE   UNIT     EDATA          ?ED?LQ_UART
000065H   0000A4H   000040H   BYTE   UNIT     EDATA          ?ED?ANO_DT
0000A5H   0000DCH   000038H   BYTE   UNIT     EDATA          _EDATA_GROUP_
0000DDH   0000FAH   00001EH   BYTE   UNIT     EDATA          ?ED?LQ_ADC
0000FBH   000113H   000019H   BYTE   UNIT     EDATA          ?ED?LQ_IIC_GYRO
000114H   00011BH   000008H   BYTE   UNIT     EDATA          ?ED?LQ_MOTORSERVO
00011CH   000120H   000005H   BYTE   UNIT     EDATA          ?ED?LQ_GPIO_EXIT
000121H   000122H   000002H   BYTE   UNIT     EDATA          ?ED?LQ_GPIO_LED
000123H   000123H   000001H   BYTE   UNIT     EDATA          ?ED?LQ_IIC_VL53
000124H   000223H   000100H   BYTE   UNIT     EDATA          ?STACK
000224H   00FFFFH   00FDDCH   ---    ---      **GAP**
010000H   010000H   000001H   BYTE   INSEG    XDATA          ?XD?LQ_CCD
010001H   FEFFFFH   FDFFFFH   ---    ---      **GAP**
FF0000H   FF0002H   000003H   ---    OFFS..   CODE           ?CO?start251?4
FF0003H   FF0005H   000003H   ---    OFFS..   CODE           ?PR?IV?0
FF0006H   FF000AH   000005H   BYTE   INSEG    CODE           ?PR?MPU_READ_LEN?LQ_IIC_GYRO
FF000BH   FF000DH   000003H   ---    OFFS..   CODE           ?PR?IV?1
L251 LINKER/LOCATER V4.66.93.0                                                        05/26/2024  22:09:54  PAGE 3


FF000EH   FF0012H   000005H   BYTE   INSEG    CODE           ?PR?MPU_WRITE_BYTE?LQ_IIC_GYRO
FF0013H   FF0015H   000003H   ---    OFFS..   CODE           ?PR?IV?2
FF0016H   FF0019H   000004H   BYTE   UNIT     CONST          ?CO?PRINTF
FF001AH   FF001AH   000001H   ---    ---      **GAP**
FF001BH   FF001DH   000003H   ---    OFFS..   CODE           ?PR?IV?3
FF001EH   FF0022H   000005H   ---    ---      **GAP**
FF0023H   FF0025H   000003H   ---    OFFS..   CODE           ?PR?IV?4
FF0026H   FF0052H   00002DH   BYTE   INSEG    CODE           ?PR?IIC_WAITACK?LQ_SOFTI2C
FF0053H   FF0055H   000003H   ---    OFFS..   CODE           ?PR?IV?10
FF0056H   FF005AH   000005H   ---    ---      **GAP**
FF005BH   FF005DH   000003H   ---    OFFS..   CODE           ?PR?IV?11
FF005EH   FF0062H   000005H   ---    ---      **GAP**
FF0063H   FF0065H   000003H   ---    OFFS..   CODE           ?PR?IV?12
FF0066H   FF0081H   00001CH   BYTE   INSEG    CODE           ?PR?DELAYMS_MPU?LQ_IIC_GYRO
FF0082H   FF0082H   000001H   ---    ---      **GAP**
FF0083H   FF0085H   000003H   ---    OFFS..   CODE           ?PR?IV?16
FF0086H   FF0092H   00000DH   BYTE   INSEG    CODE           ?PR?GPIO_LED_INIT?LQ_GPIO_LED
FF0093H   FF0095H   000003H   ---    OFFS..   CODE           ?PR?IV?18
FF0096H   FF009AH   000005H   ---    ---      **GAP**
FF009BH   FF009DH   000003H   ---    OFFS..   CODE           ?PR?IV?19
FF009EH   FF00A2H   000005H   ---    ---      **GAP**
FF00A3H   FF00A5H   000003H   ---    OFFS..   CODE           ?PR?IV?20
FF00A6H   FF0A02H   00095DH   BYTE   UNIT     CODE           ?C?LIB_CODE
FF0A03H   FF0B0DH   00010BH   BYTE   INSEG    CODE           ?PR?MOTORINIT?LQ_MOTORSERVO
FF0B0EH   FF0BEFH   0000E2H   BYTE   INSEG    CODE           ?PR?LED_CTRL?LQ_GPIO_LED
FF0BF0H   FF0CA0H   0000B1H   BYTE   INSEG    CODE           ?PR?OLED_P6X8STR?LQ_OLED096
FF0CA1H   FF0D46H   0000A6H   BYTE   INSEG    CODE           ?PR?OLED_INIT?LQ_OLED096
FF0D47H   FF0DE0H   00009AH   BYTE   INSEG    CODE           ?PR?IIC_READMULTBYTEFROMSLAVE?LQ_SOFTI2C
FF0DE1H   FF0E74H   000094H   BYTE   INSEG    CODE           ?PR?SERVOINIT?LQ_MOTORSERVO
FF0E75H   FF0F00H   00008CH   BYTE   INSEG    CODE           ?PR?READ_ENCODER?LQ_ENCODER
FF0F01H   FF0F8BH   00008BH   BYTE   INSEG    CODE           ?PR?MOTORCTRL?LQ_MOTORSERVO
FF0F8CH   FF1014H   000089H   BYTE   INSEG    CODE           ?PR?MPU6050_INIT?LQ_IIC_GYRO
FF1015H   FF108CH   000078H   BYTE   INSEG    CODE           ?PR?SYSINIT?MAIN
FF108DH   FF109FH   000013H   BYTE   UNIT     CODE           ?C_C51STARTUP
FF10A0H   FF10F9H   00005AH   BYTE   UNIT     CODE           ?C_C51STARTUP?2
FF10FAH   FF10FCH   000003H   BYTE   UNIT     CODE           ?C_C51STARTUP?3
FF10FDH   FF114BH   00004FH   BYTE   INSEG    CODE           ?PR?ENCODER?LQ_ENCODER
FF114CH   FF118FH   000044H   BYTE   INSEG    CODE           ?PR?MPU_SET_LPF?LQ_IIC_GYRO
FF1190H   FF11CEH   00003FH   BYTE   INSEG    CODE           ?PR?IIC_READBYTE?LQ_SOFTI2C
FF11CFH   FF1209H   00003BH   BYTE   INSEG    CODE           ?PR?UART4_INT?LQ_UART
FF120AH   FF1240H   000037H   BYTE   INSEG    CODE           ?PR?IIC_WRITEBYTETOSLAVE?LQ_SOFTI2C
FF1241H   FF1276H   000036H   BYTE   INSEG    CODE           ?PR?TIMER0_INT?LQ_TIMER
FF1277H   FF12ACH   000036H   BYTE   INSEG    CODE           ?PR?TIMER1_INT?LQ_TIMER
FF12ADH   FF12E2H   000036H   BYTE   INSEG    CODE           ?PR?TIMER2_INT?LQ_TIMER
FF12E3H   FF1318H   000036H   BYTE   INSEG    CODE           ?PR?TIMER3_INT?LQ_TIMER
FF1319H   FF134EH   000036H   BYTE   INSEG    CODE           ?PR?TIMER4_INT?LQ_TIMER
FF134FH   FF1384H   000036H   BYTE   INSEG    CODE           ?PR?IIC_SENDBYTE?LQ_SOFTI2C
FF1385H   FF13B9H   000035H   BYTE   INSEG    CODE           ?PR?UART1_INT?LQ_UART
FF13BAH   FF13EDH   000034H   BYTE   INSEG    CODE           ?PR?OLED_CLS?LQ_OLED096
FF13EEH   FF1421H   000034H   BYTE   INSEG    CODE           ?PR?MPU_SET_RATE?LQ_IIC_GYRO
FF1422H   FF1452H   000031H   BYTE   INSEG    CODE           ?PR?SERVOCTRL?LQ_MOTORSERVO
FF1453H   FF1479H   000027H   BYTE   INSEG    CODE           ?PR?IIC_START?LQ_SOFTI2C
FF147AH   FF149EH   000025H   BYTE   INSEG    CODE           ?PR?OLED_WRCMD?LQ_OLED096
FF149FH   FF14C3H   000025H   BYTE   INSEG    CODE           ?PR?OLED_WRDAT?LQ_OLED096
FF14C4H   FF14E6H   000023H   BYTE   INSEG    CODE           ?PR?OLED_SET_POS?LQ_OLED096
FF14E7H   FF1509H   000023H   BYTE   INSEG    CODE           ?PR?IIC_STOP?LQ_SOFTI2C
FF150AH   FF152AH   000021H   BYTE   INSEG    CODE           ?PR?IIC_NACK?LQ_SOFTI2C
FF152BH   FF154BH   000021H   BYTE   INSEG    CODE           ?PR?IIC_ACK?LQ_SOFTI2C
FF154CH   FF1563H   000018H   BYTE   INSEG    CODE           ?PR?MAIN?MAIN
FF1564H   FF157AH   000017H   BYTE   INSEG    CODE           ?PR?DELAYMS?LQ_TIMER
FF157BH   FF1590H   000016H   BYTE   INSEG    CODE           ?PR?MPU_SET_GYRO_FSR?LQ_IIC_GYRO
FF1591H   FF15A6H   000016H   BYTE   INSEG    CODE           ?PR?MPU_SET_ACCEL_FSR?LQ_IIC_GYRO
FF15A7H   FF15B8H   000012H   BYTE   INSEG    CODE           ?PR?INT0_INT?LQ_GPIO_EXIT
FF15B9H   FF15CAH   000012H   BYTE   INSEG    CODE           ?PR?INT1_INT?LQ_GPIO_EXIT
FF15CBH   FF15DCH   000012H   BYTE   INSEG    CODE           ?PR?INT2_INT?LQ_GPIO_EXIT
L251 LINKER/LOCATER V4.66.93.0                                                        05/26/2024  22:09:54  PAGE 4


FF15DDH   FF15EEH   000012H   BYTE   INSEG    CODE           ?PR?INT3_INT?LQ_GPIO_EXIT
FF15EFH   FF1600H   000012H   BYTE   INSEG    CODE           ?PR?INT4_INT?LQ_GPIO_EXIT
FF1601H   FF1610H   000010H   BYTE   INSEG    CODE           ?PR?TIMER34ENCINIT?LQ_ENCODER
FF1611H   FF1620H   000010H   BYTE   INSEG    CODE           ?PR?TIMER2_INIT?LQ_TIMER
FF1621H   FF162FH   00000FH   BYTE   INSEG    CODE           ?PR?MPU_READ_BYTE?LQ_IIC_GYRO
FF1630H   FF163CH   00000DH   BYTE   INSEG    CODE           ?PR?GPIO_KEY_INIT?LQ_GPIO_KEY
FF163DH   FF1647H   00000BH   BYTE   INSEG    CODE           ?PR?IIC_DELAY?LQ_SOFTI2C
FF1648H   FF24FCH   000EB5H   BYTE   UNIT     HCONST         ?HC?LQ_OLED096
FF24FDH   FF25A1H   0000A5H   BYTE   UNIT     HCONST         ?HC?LQ_IIC_GYRO
FF25A2H   FF2621H   000080H   BYTE   UNIT     HCONST         ?HC?LQ_GPIO_KEY
FF2622H   FF268DH   00006CH   BYTE   UNIT     HCONST         ?C_INITEDATA
FF268EH   FF26E7H   00005AH   BYTE   UNIT     HCONST         ?HC?LQ_SPI_GYRO
FF26E8H   FF2733H   00004CH   BYTE   UNIT     HCONST         ?HC?LQ_ADC
FF2734H   FF277DH   00004AH   BYTE   UNIT     HCONST         ?HC?LQ_SPI_SOFT
FF277EH   FF27C5H   000048H   BYTE   UNIT     HCONST         ?HC?LQ_ENCODER
FF27C6H   FF2803H   00003EH   BYTE   UNIT     HCONST         ?HC?LQ_IIC_VL53
FF2804H   FF280FH   00000CH   BYTE   UNIT     HCONST         ?HC?LQ_CCD
FF2810H   FF2819H   00000AH   BYTE   UNIT     HCONST         ?HC?LQ_GPIO_EXIT
FF281AH   FF2821H   000008H   BYTE   UNIT     HCONST         ?C_INITHDATA

* * * * * * * * *   R E M O V E D     S E G M E N T S   * * * * * * * *
   *DEL*:           000020H   BYTE   INSEG    CODE           ?PR?LED_FLASH?LQ_GPIO_LED
   *DEL*:           00001CH   BYTE   INSEG    CODE           ?PR?TEST_GPIO_LED?LQ_GPIO_LED
   *DEL*:           0000F6H   BYTE   INSEG    CODE           ?PR?TEST_COMKEY_TFT?LQ_GPIO_KEY
   *DEL*:           000024H   BYTE   INSEG    CODE           ?PR?KEY_READ_ALL?LQ_GPIO_KEY
   *DEL*:           00003BH   BYTE   INSEG    CODE           ?PR?KEY_READ?LQ_GPIO_KEY
   *DEL*:           000062H   BYTE   INSEG    CODE           ?PR?TEST_GPIO_KEY?LQ_GPIO_KEY
   *DEL*:           00018BH   BYTE   INSEG    CODE           ?PR?OLED_ROAD?LQ_OLED096
   *DEL*:           000035H   BYTE   INSEG    CODE           ?PR?OLED_FILL?LQ_OLED096
   *DEL*:           000127H   BYTE   INSEG    CODE           ?PR?OLED_RECTANGLE?LQ_OLED096
   *DEL*:           00007BH   BYTE   INSEG    CODE           ?PR?TEST_OLED?LQ_OLED096
   *DEL*:           0000FCH   BYTE   INSEG    CODE           ?PR?OLED_P8X16STR?LQ_OLED096
   *DEL*:           000035H   BYTE   INSEG    CODE           ?PR?OLED_SHOW_LQLOGO?LQ_OLED096
   *DEL*:           000053H   BYTE   INSEG    CODE           ?PR?OLED_PUTPIXEL?LQ_OLED096
   *DEL*:           00003CH   BYTE   INSEG    CODE           ?PR?OLED_CLRDOT?LQ_OLED096
   *DEL*:           0001C0H   BYTE   INSEG    CODE           ?PR?OLED_P14X16STR?LQ_OLED096
   *DEL*:           0000B6H   BYTE   INSEG    CODE           ?PR?OLED_SHOW_FRAME80?LQ_OLED096
   *DEL*:           0000B6H   BYTE   INSEG    CODE           ?PR?OLED_SHOW_FRAME94?LQ_OLED096
   *DEL*:           0000B0H   BYTE   INSEG    CODE           ?PR?OLED_SHOW_BMP?LQ_OLED096
   *DEL*:           000003H   BYTE   UNIT     EDATA          ?ED?OLED_RECTANGLE?LQ_OLED096
   *DEL*:           000006H   BYTE   UNIT     EDATA          ?ED?OLED_P8X16STR?LQ_OLED096
   *DEL*:           000007H   BYTE   UNIT     EDATA          ?ED?OLED_P14X16STR?LQ_OLED096
   *DEL*:           000007H   BYTE   UNIT     EDATA          ?ED?OLED_SHOW_BMP?LQ_OLED096
   *DEL*:           000009H   BYTE   UNIT     EDATA          ?ED?OLED_ROAD?LQ_OLED096
   *DEL*:           000010H   BYTE   UNIT     EDATA          ?ED?TEST_OLED?LQ_OLED096
   *DEL*:           00000FH   BYTE   INSEG    CODE           ?PR?LQ_IIC_LSM60DSR_GETID?LQ_IIC_GYRO
   *DEL*:           00005BH   BYTE   INSEG    CODE           ?PR?MPU_GET_GYROSCOPE?LQ_IIC_GYRO
   *DEL*:           000067H   BYTE   INSEG    CODE           ?PR?MPU9250_GET_MAGNETOMETER?LQ_IIC_GYRO
   *DEL*:           00005BH   BYTE   INSEG    CODE           ?PR?MPU_GET_ACCELEROMETER?LQ_IIC_GYRO
   *DEL*:           000141H   BYTE   INSEG    CODE           ?PR?LQ_IIC_LSM60DSR_READ?LQ_IIC_GYRO
   *DEL*:           000266H   BYTE   INSEG    CODE           ?PR?IIC_GYRO?LQ_IIC_GYRO
   *DEL*:           0003C1H   BYTE   INSEG    CODE           ?PR?TEST_IIC_GYRO?LQ_IIC_GYRO
   *DEL*:           000005H   BYTE   INSEG    CODE           ?PR?MPU_WRITE_LEN?LQ_IIC_GYRO
   *DEL*:           000155H   BYTE   INSEG    CODE           ?PR?TEST_IIC_LQLSM6DSR?LQ_IIC_GYRO
   *DEL*:           00004DH   BYTE   INSEG    CODE           ?PR?LQ_IIC_LSM60DSR_INIT?LQ_IIC_GYRO
   *DEL*:           00003CH   BYTE   INSEG    CODE           ?PR?MPU_GET_TEMPERATURE?LQ_IIC_GYRO
   *DEL*:           00005AH   BYTE   INSEG    CODE           ?PR?GYRO_CHOSE?LQ_IIC_GYRO
   *DEL*:           00013CH   BYTE   INSEG    CODE           ?PR?MPU_GET_RAW_DATA?LQ_IIC_GYRO
   *DEL*:           00004CH   BYTE   UNIT     EDATA          ?ED?TEST_IIC_GYRO?LQ_IIC_GYRO
   *DEL*:           00004CH   BYTE   UNIT     EDATA          ?ED?IIC_GYRO?LQ_IIC_GYRO
   *DEL*:           000002H   BYTE   UNIT     EDATA          ?ED?MPU_GET_TEMPERATURE?LQ_IIC_GYRO
   *DEL*:           00000EH   BYTE   UNIT     EDATA          ?ED?MPU_GET_GYROSCOPE?LQ_IIC_GYRO
   *DEL*:           00000EH   BYTE   UNIT     EDATA          ?ED?MPU_GET_ACCELEROMETER?LQ_IIC_GYRO
   *DEL*:           000023H   BYTE   UNIT     EDATA          ?ED?MPU_GET_RAW_DATA?LQ_IIC_GYRO
   *DEL*:           00000FH   BYTE   UNIT     EDATA          ?ED?MPU9250_GET_MAGNETOMETER?LQ_IIC_GYRO
L251 LINKER/LOCATER V4.66.93.0                                                        05/26/2024  22:09:54  PAGE 5


   *DEL*:           000001H   BYTE   UNIT     EDATA          ?ED?LQ_IIC_LSM60DSR_GETID?LQ_IIC_GYRO
   *DEL*:           000016H   BYTE   UNIT     EDATA          ?ED?LQ_IIC_LSM60DSR_READ?LQ_IIC_GYRO
   *DEL*:           00002AH   BYTE   UNIT     EDATA          ?ED?TEST_IIC_LQLSM6DSR?LQ_IIC_GYRO
   *DEL*:           000098H   BYTE   INSEG    CODE           ?PR?ANO_DT_SEND_INT16BYTE16?ANO_DT
   *DEL*:           000058H   BYTE   INSEG    CODE           ?PR?UART4_SENDINT16?ANO_DT
   *DEL*:           000008H   BYTE   UNIT     EDATA          ?ED?ANO_DT_SEND_INT16BYTE16?ANO_DT
   *DEL*:           00000EH   BYTE   INSEG    CODE           ?PR?ICM_READ_LEN?LQ_SPI_GYRO
   *DEL*:           00004BH   BYTE   INSEG    CODE           ?PR?GYRO_CHOSE_SPI?LQ_SPI_GYRO
   *DEL*:           000016H   BYTE   INSEG    CODE           ?PR?GYRO_READ_BYTE_SPI?LQ_SPI_GYRO
   *DEL*:           000015H   BYTE   INSEG    CODE           ?PR?GYRO_WRITE_BYTE_SPI?LQ_SPI_GYRO
   *DEL*:           0001D0H   BYTE   INSEG    CODE           ?PR?TEST_SPI_GYRO?LQ_SPI_GYRO
   *DEL*:           000092H   BYTE   INSEG    CODE           ?PR?GYRO_GET_RAW_DATA_SPI?LQ_SPI_GYRO
   *DEL*:           000002H   BYTE   UNIT     EDATA          ?ED?GYRO_READ_BYTE_SPI?LQ_SPI_GYRO
   *DEL*:           000002H   BYTE   UNIT     EDATA          ?ED?GYRO_WRITE_BYTE_SPI?LQ_SPI_GYRO
   *DEL*:           000023H   BYTE   UNIT     EDATA          ?ED?GYRO_GET_RAW_DATA_SPI?LQ_SPI_GYRO
   *DEL*:           00002AH   BYTE   UNIT     EDATA          ?ED?TEST_SPI_GYRO?LQ_SPI_GYRO
   *DEL*:           00008DH   BYTE   INSEG    CODE           ?PR?TEST_IIC_VL53?LQ_IIC_VL53
   *DEL*:           000005H   BYTE   INSEG    CODE           ?PR?VL53_READ_NBYTE?LQ_IIC_VL53
   *DEL*:           000005H   BYTE   INSEG    CODE           ?PR?VL53_WRITE_BYTE?LQ_IIC_VL53
   *DEL*:           000026H   BYTE   UNIT     EDATA          ?ED?TEST_IIC_VL53?LQ_IIC_VL53
   *DEL*:           000003H   BYTE   INSEG    CODE           ?PR?CCD_DELAYUS?LQ_CCD
   *DEL*:           000036H   BYTE   INSEG    CODE           ?PR?CCD_INIT?LQ_CCD
   *DEL*:           000088H   BYTE   INSEG    CODE           ?PR?TEST_CCD?LQ_CCD
   *DEL*:           0000D7H   BYTE   INSEG    CODE           ?PR?CCD_COLLECT?LQ_CCD
   *DEL*:           000004H   BYTE   UNIT     EDATA          ?ED?CCD_COLLECT?LQ_CCD
   *DEL*:           000100H   BYTE   UNIT     XDATA          ?XD?TEST_CCD?LQ_CCD
   *DEL*:           00000BH   BYTE   INSEG    CODE           ?PR?UART1_PUTCHAR?LQ_UART
   *DEL*:           00000BH   BYTE   INSEG    CODE           ?PR?UART4_PUTCHAR?LQ_UART
   *DEL*:           000025H   BYTE   INSEG    CODE           ?PR?UART1_PUTBUFF?LQ_UART
   *DEL*:           000025H   BYTE   INSEG    CODE           ?PR?UART4_PUTBUFF?LQ_UART
   *DEL*:           00000FH   BYTE   INSEG    CODE           ?PR?SETTIMER2BAUDRAYE?LQ_UART
   *DEL*:           000016H   BYTE   INSEG    CODE           ?PR?UART1_PUTSTR?LQ_UART
   *DEL*:           000016H   BYTE   INSEG    CODE           ?PR?UART4_PUTSTR?LQ_UART
   *DEL*:           00002BH   BYTE   INSEG    CODE           ?PR?UART1_CONFIG?LQ_UART
   *DEL*:           00002FH   BYTE   INSEG    CODE           ?PR?UART4_CONFIG?LQ_UART
   *DEL*:           000003H   BYTE   INSEG    CODE           ?PR?UART1_GETCHAR?LQ_UART
   *DEL*:           000003H   BYTE   INSEG    CODE           ?PR?UART4_GETCHAR?LQ_UART
   *DEL*:           000017H   BYTE   INSEG    CODE           ?PR?DELAYUS?LQ_UART
   *DEL*:           000002H   BYTE   UNIT     EDATA          ?ED?UART4_PUTBUFF?LQ_UART
   *DEL*:           000002H   BYTE   UNIT     EDATA          ?ED?UART1_PUTBUFF?LQ_UART
   *DEL*:           0000DBH   BYTE   INSEG    CODE           ?PR?TESTENCODER?LQ_ENCODER
   *DEL*:           000012H   BYTE   UNIT     EDATA          ?ED?TESTENCODER?LQ_ENCODER
   *DEL*:           00001DH   BYTE   INSEG    CODE           ?PR?TIMER0_INIT?LQ_TIMER
   *DEL*:           00001DH   BYTE   INSEG    CODE           ?PR?TIMER1_INIT?LQ_TIMER
   *DEL*:           00000DH   BYTE   INSEG    CODE           ?PR?TIMER3_INIT?LQ_TIMER
   *DEL*:           00000DH   BYTE   INSEG    CODE           ?PR?TIMER4_INIT?LQ_TIMER
   *DEL*:           000025H   BYTE   INSEG    CODE           ?PR?GET_ADC?LQ_ADC
   *DEL*:           00002BH   BYTE   INSEG    CODE           ?PR?ADC_READ?LQ_ADC
   *DEL*:           0000D6H   BYTE   INSEG    CODE           ?PR?INDUCTORNORMAL?LQ_ADC
   *DEL*:           000026H   BYTE   INSEG    CODE           ?PR?ADC_INIT?LQ_ADC
   *DEL*:           00003BH   BYTE   INSEG    CODE           ?PR?ADC_READ_AVERAGE?LQ_ADC
   *DEL*:           0000E5H   BYTE   INSEG    CODE           ?PR?TEST_ADC?LQ_ADC
   *DEL*:           000004H   BYTE   UNIT     EDATA          ?ED?ADC_READ_AVERAGE?LQ_ADC
   *DEL*:           00001EH   BYTE   UNIT     EDATA          ?ED?TEST_ADC?LQ_ADC
   *DEL*:           000016H   BYTE   INSEG    CODE           ?PR?GPIO_EXIT_INIT?LQ_GPIO_EXIT
   *DEL*:           000038H   BYTE   INSEG    CODE           ?PR?TEST_GPIO_EXIT_INIT?LQ_GPIO_EXIT
   *DEL*:           000020H   BYTE   UNIT     EDATA          ?ED?TEST_GPIO_EXIT_INIT?LQ_GPIO_EXIT
   *DEL*:           000038H   BYTE   INSEG    CODE           ?PR?LQ_SPI_LSM60DSR_INIT?LQ_SPI_SOFT
   *DEL*:           000010H   BYTE   INSEG    CODE           ?PR?LQ_SPI_LSM60DSR_GETID?LQ_SPI_SOFT
   *DEL*:           000037H   BYTE   INSEG    CODE           ?PR?LQ_SPI_READ?LQ_SPI_SOFT
   *DEL*:           000015H   BYTE   INSEG    CODE           ?PR?LQ_SPI_WRITE?LQ_SPI_SOFT
   *DEL*:           000043H   BYTE   INSEG    CODE           ?PR?SOFT_SPI_READWRITENBYTE?LQ_SPI_SOFT
   *DEL*:           000007H   BYTE   INSEG    CODE           ?PR?SOFT_SPI_INIT?LQ_SPI_SOFT
   *DEL*:           000092H   BYTE   INSEG    CODE           ?PR?LQ_SPI_LSM60DSR_READ?LQ_SPI_SOFT
   *DEL*:           00014BH   BYTE   INSEG    CODE           ?PR?TEST_SPI_LQLSM6DSR?LQ_SPI_SOFT
L251 LINKER/LOCATER V4.66.93.0                                                        05/26/2024  22:09:54  PAGE 6


   *DEL*:           000022H   BYTE   UNIT     EDATA          ?ED?LQ_SPI_READ?LQ_SPI_SOFT
   *DEL*:           000002H   BYTE   UNIT     EDATA          ?ED?LQ_SPI_WRITE?LQ_SPI_SOFT
   *DEL*:           000001H   BYTE   UNIT     EDATA          ?ED?LQ_SPI_LSM60DSR_GETID?LQ_SPI_SOFT
   *DEL*:           000020H   BYTE   UNIT     EDATA          ?ED?LQ_SPI_LSM60DSR_READ?LQ_SPI_SOFT
   *DEL*:           00002AH   BYTE   UNIT     EDATA          ?ED?TEST_SPI_LQLSM6DSR?LQ_SPI_SOFT
   *DEL*:           00007AH   BYTE   INSEG    CODE           ?PR?LQ_I2C_READ?LQ_SOFTI2C
   *DEL*:           000058H   BYTE   INSEG    CODE           ?PR?LQ_I2C_WRITE?LQ_SOFTI2C
   *DEL*:           000069H   BYTE   INSEG    CODE           ?PR?IIC_WRITEMULTBYTETOSLAVE?LQ_SOFTI2C
   *DEL*:           000011H   BYTE   INSEG    CODE           ?PR?IIC_INIT?LQ_SOFTI2C
   *DEL*:           000045H   BYTE   INSEG    CODE           ?PR?IIC_READBYTEFROMSLAVE?LQ_SOFTI2C
   *DEL*:           000004H   BYTE   UNIT     EDATA          ?ED?IIC_READBYTEFROMSLAVE?LQ_SOFTI2C
   *DEL*:           000004H   BYTE   UNIT     EDATA          ?ED?IIC_WRITEMULTBYTETOSLAVE?LQ_SOFTI2C
   *DEL*:           000006H   BYTE   UNIT     EDATA          ?ED?LQ_I2C_WRITE?LQ_SOFTI2C
   *DEL*:           000004H   BYTE   UNIT     EDATA          ?ED?LQ_I2C_READ?LQ_SOFTI2C



OVERLAY MAP OF MODULE:   .\Objects\LQ_STC32lib (LQ_GPIO_LED)


FUNCTION/MODULE                           EDATA_GROUP
--> CALLED FUNCTION/MODULE                START  STOP
=====================================================
UART1_int/LQ_UART                         ----- -----

*** NEW ROOT ****************************

UART4_int/LQ_UART                         ----- -----

*** NEW ROOT ****************************

timer0_int/LQ_TIMER                       ----- -----
  +--> LED_Ctrl/LQ_GPIO_LED

LED_Ctrl/LQ_GPIO_LED                      ----- -----

*** NEW ROOT ****************************

timer1_int/LQ_TIMER                       ----- -----
  +--> LED_Ctrl/LQ_GPIO_LED

*** NEW ROOT ****************************

timer2_int/LQ_TIMER                       ----- -----
  +--> LED_Ctrl/LQ_GPIO_LED

*** NEW ROOT ****************************

timer3_int/LQ_TIMER                       ----- -----
  +--> LED_Ctrl/LQ_GPIO_LED

*** NEW ROOT ****************************

timer4_int/LQ_TIMER                       ----- -----
  +--> LED_Ctrl/LQ_GPIO_LED

*** NEW ROOT ****************************

INT0_int/LQ_GPIO_EXIT                     ----- -----

*** NEW ROOT ****************************

INT1_int/LQ_GPIO_EXIT                     ----- -----

*** NEW ROOT ****************************
L251 LINKER/LOCATER V4.66.93.0                                                        05/26/2024  22:09:54  PAGE 7



INT2_int/LQ_GPIO_EXIT                     ----- -----

*** NEW ROOT ****************************

INT3_int/LQ_GPIO_EXIT                     ----- -----

*** NEW ROOT ****************************

INT4_int/LQ_GPIO_EXIT                     ----- -----

*** NEW ROOT ****************************

?C_C51STARTUP                             ----- -----

*** NEW ROOT ****************************

?C_C51STARTUP?3                           ----- -----
  +--> main/main

main/main                                 ----- -----
  +--> sysinit/main
  +--> MotorCtrl/LQ_MotorServo
  +--> ServoCtrl/LQ_MotorServo
  +--> Encoder/LQ_Encoder

sysinit/main                              ----- -----
  +--> GPIO_LED_Init/LQ_GPIO_LED
  +--> GPIO_KEY_Init/LQ_GPIO_KEY
  +--> OLED_Init/LQ_OLED096
  +--> ServoInit/LQ_MotorServo
  +--> MotorInit/LQ_MotorServo
  +--> Timer34EncInit/LQ_Encoder
  +--> MPU6050_Init/LQ_IIC_Gyro
  +--> Timer2_init/LQ_TIMER

GPIO_LED_Init/LQ_GPIO_LED                 ----- -----

GPIO_KEY_Init/LQ_GPIO_KEY                 ----- -----

OLED_Init/LQ_OLED096                      ----- -----
  +--> delayms/LQ_TIMER
  +--> OLED_WrCmd/LQ_OLED096
  +--> OLED_CLS/LQ_OLED096
  +--> OLED_Set_Pos/LQ_OLED096

delayms/LQ_TIMER                          ----- -----

OLED_WrCmd/LQ_OLED096                     ----- -----

OLED_CLS/LQ_OLED096                       ----- -----
  +--> OLED_WrCmd/LQ_OLED096
  +--> OLED_WrDat/LQ_OLED096

OLED_WrDat/LQ_OLED096                     ----- -----

OLED_Set_Pos/LQ_OLED096                   ----- -----
  +--> OLED_WrCmd/LQ_OLED096

ServoInit/LQ_MotorServo                   ----- -----
  +--> ?C?SLDIV/?C?SLDIV

?C?SLDIV/?C?SLDIV                         ----- -----
  +--> ?C?ULIDIV/?C?ULDIV

L251 LINKER/LOCATER V4.66.93.0                                                        05/26/2024  22:09:54  PAGE 8


?C?ULIDIV/?C?ULDIV                        ----- -----

MotorInit/LQ_MotorServo                   ----- -----
  +--> ?C?SLDIV/?C?SLDIV

Timer34EncInit/LQ_Encoder                 ----- -----

MPU6050_Init/LQ_IIC_Gyro                  ----- -----
  +--> delayms/LQ_TIMER
  +--> MPU_Read_Byte/LQ_IIC_Gyro
  +--> MPU_Write_Byte/LQ_IIC_Gyro
  +--> delayms_mpu/LQ_IIC_Gyro
  +--> MPU_Set_Gyro_Fsr/LQ_IIC_Gyro
  +--> MPU_Set_Accel_Fsr/LQ_IIC_Gyro
  +--> MPU_Set_Rate/LQ_IIC_Gyro

MPU_Read_Byte/LQ_IIC_Gyro                 00A5H 00A5H
  +--> MPU_Read_Len/LQ_IIC_Gyro

MPU_Read_Len/LQ_IIC_Gyro                  ----- -----
  +--> IIC_ReadMultByteFromSlave/LQ_SOFTI2C

IIC_ReadMultByteFromSlave/LQ_SOFTI2C      00A6H 00AAH
  +--> IIC_Start/LQ_SOFTI2C
  +--> IIC_SendByte/LQ_SOFTI2C
  +--> IIC_WaitAck/LQ_SOFTI2C
  +--> IIC_Stop/LQ_SOFTI2C
  +--> IIC_ReadByte/LQ_SOFTI2C

IIC_Start/LQ_SOFTI2C                      ----- -----
  +--> iic_delay/LQ_SOFTI2C

iic_delay/LQ_SOFTI2C                      ----- -----

IIC_SendByte/LQ_SOFTI2C                   ----- -----
  +--> iic_delay/LQ_SOFTI2C

IIC_WaitAck/LQ_SOFTI2C                    ----- -----
  +--> iic_delay/LQ_SOFTI2C
  +--> IIC_Stop/LQ_SOFTI2C

IIC_Stop/LQ_SOFTI2C                       ----- -----
  +--> iic_delay/LQ_SOFTI2C

IIC_ReadByte/LQ_SOFTI2C                   ----- -----
  +--> iic_delay/LQ_SOFTI2C
  +--> IIC_Ack/LQ_SOFTI2C
  +--> IIC_NAck/LQ_SOFTI2C

IIC_Ack/LQ_SOFTI2C                        ----- -----
  +--> iic_delay/LQ_SOFTI2C

IIC_NAck/LQ_SOFTI2C                       ----- -----
  +--> iic_delay/LQ_SOFTI2C

MPU_Write_Byte/LQ_IIC_Gyro                ----- -----
  +--> IIC_WriteByteToSlave/LQ_SOFTI2C

IIC_WriteByteToSlave/LQ_SOFTI2C           ----- -----
  +--> IIC_Start/LQ_SOFTI2C
  +--> IIC_SendByte/LQ_SOFTI2C
  +--> IIC_WaitAck/LQ_SOFTI2C
  +--> IIC_Stop/LQ_SOFTI2C

delayms_mpu/LQ_IIC_Gyro                   ----- -----
L251 LINKER/LOCATER V4.66.93.0                                                        05/26/2024  22:09:54  PAGE 9



MPU_Set_Gyro_Fsr/LQ_IIC_Gyro              ----- -----
  +--> MPU_Write_Byte/LQ_IIC_Gyro

MPU_Set_Accel_Fsr/LQ_IIC_Gyro             ----- -----
  +--> MPU_Write_Byte/LQ_IIC_Gyro

MPU_Set_Rate/LQ_IIC_Gyro                  ----- -----
  +--> MPU_Write_Byte/LQ_IIC_Gyro
  +--> MPU_Set_LPF/LQ_IIC_Gyro

MPU_Set_LPF/LQ_IIC_Gyro                   ----- -----
  +--> MPU_Write_Byte/LQ_IIC_Gyro

Timer2_init/LQ_TIMER                      ----- -----

MotorCtrl/LQ_MotorServo                   ----- -----

ServoCtrl/LQ_MotorServo                   ----- -----

Encoder/LQ_Encoder                        00A5H 00B4H
  +--> Read_Encoder/LQ_Encoder
  +--> SPRINTF/SPRINTF
  +--> OLED_P6x8Str/LQ_OLED096

Read_Encoder/LQ_Encoder                   ----- -----

SPRINTF/SPRINTF                           00B5H 00DCH
  +--> OUT/SPRINTF

OUT/SPRINTF                               ----- -----
  +--> PUTCH/SPRINTF

PUTCH/SPRINTF                             ----- -----

OLED_P6x8Str/LQ_OLED096                   00B5H 00B9H
  +--> OLED_Set_Pos/LQ_OLED096
  +--> OLED_WrDat/LQ_OLED096

*** NEW ROOT ****************************

?C_C51STARTUP?2                           ----- -----



PUBLIC SYMBOLS OF MODULE:  .\Objects\LQ_STC32lib (LQ_GPIO_LED)


      VALUE       CLASS    TYPE      PUBLIC SYMBOL NAME
      =================================================
*DEL*:1FFFFFF8H   EDATA    BYTE      ?ANO_DT_send_int16byte16?BYTE
      00FF09E0H   CODE     ---       ?C?BMOVENP
      00FF09DEH   CODE     ---       ?C?BMOVENP8
      00FF0222H   CODE     NEAR LAB  ?C?CASTF
      000000FFH   NUMBER   ---       ?C?CODESEG
      00FF01EFH   CODE     NEAR LAB  ?C?FCASTC
      00FF01EAH   CODE     NEAR LAB  ?C?FCASTI
      00FF01E5H   CODE     NEAR LAB  ?C?FCASTL
      00FF00ACH   CODE     ---       ?C?FPADD
      00FF071AH   CODE     ---       ?C?FPCONVERT
      00FF0164H   CODE     ---       ?C?FPDIV
      00FF027FH   CODE     ---       ?C?FPGETOPN2
      00FF0815H   CODE     ---       ?C?FPMUL
      00FF02BCH   CODE     ---       ?C?FPNANRESULT
      00FF02C4H   CODE     ---       ?C?FPOVERFLOW
L251 LINKER/LOCATER V4.66.93.0                                                        05/26/2024  22:09:54  PAGE 10


      00FF0298H   CODE     ---       ?C?FPRESULT
      00FF02AEH   CODE     ---       ?C?FPRESULT2
      00FF07D2H   CODE     ---       ?C?FPROUND
      00FF00A9H   CODE     ---       ?C?FPSUB
      00FF02C1H   CODE     ---       ?C?FPUNDERFLOW
      00FF08E5H   CODE     ---       ?C?FTNPWR
      00FF10A0H   CODE     ---       ?C?INITEDATA
      00FF268CH   HCONST   WORD      ?C?INITEDATA_END
      00FF10C9H   CODE     ---       ?C?INITHDATA
      00FF2820H   HCONST   WORD      ?C?INITHDATA_END
      00FF094EH   CODE     ---       ?C?LIMUL
      00FF02FDH   CODE     ---       ?C?PRNFMT
      00FF091CH   CODE     ---       ?C?SIDIV
      00FF09AAH   CODE     NEAR LAB  ?C?SLDIV
      00FF0000H   CODE     ---       ?C?STARTUP
      00FF0959H   CODE     NEAR LAB  ?C?ULDIV
      00FF0957H   CODE     NEAR LAB  ?C?ULIDIV
      00000001H   NUMBER   ---       ?C?XDATASEG
      00FF0000H   CODE     ---       ?C_STARTUP
*DEL*:1FFFFFFCH   EDATA    BYTE      ?Gyro_Get_Raw_data_SPI?BYTE
*DEL*:1FFFFFFCH   EDATA    BYTE      ?LQ_IIC_LSM60DSR_Read?BYTE
*DEL*:1FFFFFFCH   EDATA    BYTE      ?LQ_SPI_LSM60DSR_Read?BYTE
*DEL*:1FFFFFFCH   EDATA    BYTE      ?MPU9250_Get_Magnetometer?BYTE
*DEL*:1FFFFFFCH   EDATA    BYTE      ?MPU_Get_Accelerometer?BYTE
*DEL*:1FFFFFFCH   EDATA    BYTE      ?MPU_Get_Gyroscope?BYTE
*DEL*:1FFFFFFCH   EDATA    BYTE      ?MPU_Get_Raw_data?BYTE
      000000DDH   EDATA    ---       ?sprintf?BYTE
      000000FFH   EDATA    INT       aacx
      0000000DH   EDATA    INT       aacx_spi
      00000101H   EDATA    INT       aacy
      0000000FH   EDATA    INT       aacy_spi
      00000103H   EDATA    INT       aacz
      00000011H   EDATA    INT       aacz_spi
      000000F3H   EDATA    ---       ad_max
      000000E3H   EDATA    ---       ad_min
*SFR* 000000BCH   DATA     BYTE      ADC_CONTR
*DEL*:00000000H   CODE     ---       ADC_Init
*DEL*:00000000H   CODE     ---       ADC_Read
*DEL*:00000000H   CODE     ---       ADC_Read_Average
*SFR* 000000BDH   DATA     BYTE      ADC_RES
*SFR* 000000BEH   DATA     BYTE      ADC_RESL
*SFR* 000000DEH   DATA     BYTE      ADCCFG
*DEL*:00000000H   CODE     ---       ANO_DT_send_int16byte16
*SFR* 000000EFH   DATA     BYTE      AUXINTIF
*SFR* 0000008EH   DATA     BYTE      AUXR
*SFR* 00000097H   DATA     BYTE      AUXR2
      00000025H   EDATA    ---       buffer
      00000020H.0 BIT      BIT       busy
*SFR* 000000F1H   DATA     BYTE      CANICR
*DEL*:00000000H   CODE     ---       CCD_Collect
*DEL*:00000000H   CODE     ---       CCD_Delayus
*DEL*:00000000H   CODE     ---       CCD_Init
*SFR* 000000E6H   DATA     BYTE      CMPCR1
*SFR* 000000E7H   DATA     BYTE      CMPCR2
      00000065H   EDATA    ---       data_to_send
      00FF1564H   CODE     ---       delayms
      00FF0066H   CODE     ---       delayms_mpu
*DEL*:00000000H   CODE     ---       delayus
*SFR* 000000A8H.7 DATA     BIT       EA
      00FF10FDH   CODE     ---       Encoder
*SFR* 000000A8H.4 DATA     BIT       ES
*SFR* 000000A8H.1 DATA     BIT       ET0
*SFR* 000000A8H.3 DATA     BIT       ET1
*SFR* 000000A8H.0 DATA     BIT       EX0
*SFR* 000000A8H.2 DATA     BIT       EX1
L251 LINKER/LOCATER V4.66.93.0                                                        05/26/2024  22:09:54  PAGE 11


      00FF167AH   HCONST   ---       F14x16
      00FF196EH   HCONST   ---       F14x16_Idx
      00FF19A5H   HCONST   ---       F6x8
      00FF1BCDH   HCONST   ---       F8X16
*DEL*:00000000H   CODE     ---       Get_Adc
*DEL*:00000000H   CODE     ---       GPIO_EXIT_Init
      00FF1630H   CODE     ---       GPIO_KEY_Init
      00FF0086H   CODE     ---       GPIO_LED_Init
*DEL*:00000000H   CODE     ---       Gyro_Chose
*DEL*:00000000H   CODE     ---       Gyro_Chose_SPI
*DEL*:00000000H   CODE     ---       Gyro_Get_Raw_data_SPI
      000000FCH   EDATA    BYTE      Gyro_ID
      00000017H   EDATA    BYTE      Gyro_ID_SPI
*DEL*:00000000H   CODE     ---       Gyro_Read_Byte_SPI
*DEL*:00000000H   CODE     ---       Gyro_Write_Byte_SPI
      0000010CH   EDATA    INT       gyrox
      0000001AH   EDATA    INT       gyrox_spi
      0000010EH   EDATA    INT       gyroy
      0000001CH   EDATA    INT       gyroy_spi
      00000110H   EDATA    INT       gyroz
      0000001EH   EDATA    INT       gyroz_spi
*SFR* 000000C7H   DATA     BYTE      IAP_CONTR
*DEL*:00000000H   CODE     ---       ICM_Read_Len
*SFR* 000000A8H   DATA     BYTE      IE
*SFR* 000000AFH   DATA     BYTE      IE2
      00FF152BH   CODE     ---       IIC_Ack
      00FF163DH   CODE     ---       iic_delay
      0000010BH   EDATA    BYTE      IIC_errorid
*DEL*:00000000H   CODE     ---       IIC_Gyro
      000000FBH   EDATA    BYTE      IIC_ICM20602
      000000FEH   EDATA    BYTE      IIC_ICM20689
      000000FDH   EDATA    BYTE      IIC_ICM42605
*DEL*:00000000H   CODE     ---       IIC_Init
      00000112H   EDATA    BYTE      IIC_MPU6050
      00000113H   EDATA    BYTE      IIC_MPU9250
      00FF150AH   CODE     ---       IIC_NAck
      00FF1190H   CODE     ---       IIC_ReadByte
*DEL*:00000000H   CODE     ---       IIC_ReadByteFromSlave
      00FF0D47H   CODE     ---       IIC_ReadMultByteFromSlave
      00FF134FH   CODE     ---       IIC_SendByte
      00FF1453H   CODE     ---       IIC_Start
      00FF14E7H   CODE     ---       IIC_Stop
      00FF0026H   CODE     ---       IIC_WaitAck
      00FF120AH   CODE     ---       IIC_WriteByteToSlave
*DEL*:00000000H   CODE     ---       IIC_WriteMultByteToSlave
*DEL*:00000000H   CODE     ---       InductorNormal
      0000011CH   EDATA    BYTE      INT0_cnt
      00FF15A7H   CODE     ---       INT0_int
      0000011DH   EDATA    BYTE      INT1_cnt
      00FF15B9H   CODE     ---       INT1_int
      0000011EH   EDATA    BYTE      INT2_cnt
      00FF15CBH   CODE     ---       INT2_int
      0000011FH   EDATA    BYTE      INT3_cnt
      00FF15DDH   CODE     ---       INT3_int
      00000120H   EDATA    BYTE      INT4_cnt
      00FF15EFH   CODE     ---       INT4_int
*SFR* 0000008FH   DATA     BYTE      INTCLKO
*SFR* 000000B8H   DATA     BYTE      IP
*SFR* 000000B5H   DATA     BYTE      IP2
*SFR* 000000B6H   DATA     BYTE      IP2H
*SFR* 000000DFH   DATA     BYTE      IP3
*SFR* 000000EEH   DATA     BYTE      IP3H
*SFR* 000000B7H   DATA     BYTE      IPH
*SFR* 0000009DH   DATA     BYTE      IRCBAND
*SFR* 00000088H.0 DATA     BIT       IT0
L251 LINKER/LOCATER V4.66.93.0                                                        05/26/2024  22:09:54  PAGE 12


*SFR* 00000088H.2 DATA     BIT       IT1
*DEL*:00000000H   CODE     ---       KEY_Read
*DEL*:00000000H   CODE     ---       KEY_Read_All
      00FF0B0EH   CODE     ---       LED_Ctrl
*DEL*:00000000H   CODE     ---       Led_Flash
      000000DFH   EDATA    INT       left
*SFR* 000000F9H   DATA     BYTE      LINICR
      000000EBH   EDATA    ---       LnowADC
      00FF21BDH   HCONST   ---       longqiu104x64
*DEL*:00000000H   CODE     ---       LQ_I2C_Read
*DEL*:00000000H   CODE     ---       LQ_I2C_Write
*DEL*:00000000H   CODE     ---       LQ_IIC_LSM60DSR_GetID
*DEL*:00000000H   CODE     ---       LQ_IIC_LSM60DSR_Init
*DEL*:00000000H   CODE     ---       LQ_IIC_LSM60DSR_Read
*DEL*:00000000H   CODE     ---       LQ_SPI_LSM60DSR_GetID
*DEL*:00000000H   CODE     ---       LQ_SPI_LSM60DSR_Init
*DEL*:00000000H   CODE     ---       LQ_SPI_LSM60DSR_Read
*DEL*:00000000H   CODE     ---       LQ_SPI_Read
*DEL*:00000000H   CODE     ---       LQ_SPI_Write
      00000105H   EDATA    INT       magx
      00000013H   EDATA    INT       magx_spi
      00000107H   EDATA    INT       magy
      00000015H   EDATA    INT       magy_spi
      00000109H   EDATA    INT       magz
      00000018H   EDATA    INT       magz_spi
      00FF154CH   CODE     ---       main
      00FF0F01H   CODE     ---       MotorCtrl
      00FF0A03H   CODE     ---       MotorInit
      00FF0F8CH   CODE     ---       MPU6050_Init
*DEL*:00000000H   CODE     ---       MPU9250_Get_Magnetometer
*DEL*:00000000H   CODE     ---       MPU_Get_Accelerometer
*DEL*:00000000H   CODE     ---       MPU_Get_Gyroscope
*DEL*:00000000H   CODE     ---       MPU_Get_Raw_data
*DEL*:00000000H   CODE     ---       MPU_Get_Temperature
      00FF1621H   CODE     ---       MPU_Read_Byte
      00FF0006H   CODE     ---       MPU_Read_Len
      00FF1591H   CODE     ---       MPU_Set_Accel_Fsr
      00FF157BH   CODE     ---       MPU_Set_Gyro_Fsr
      00FF114CH   CODE     ---       MPU_Set_LPF
      00FF13EEH   CODE     ---       MPU_Set_Rate
      00FF000EH   CODE     ---       MPU_Write_Byte
*DEL*:00000000H   CODE     ---       MPU_Write_Len
*DEL*:00000000H   CODE     ---       OLED_ClrDot
      00FF13BAH   CODE     ---       OLED_CLS
*DEL*:00000000H   CODE     ---       OLED_Fill
      00FF0CA1H   CODE     ---       OLED_Init
*DEL*:00000000H   CODE     ---       OLED_P14x16Str
      00FF0BF0H   CODE     ---       OLED_P6x8Str
*DEL*:00000000H   CODE     ---       OLED_P8x16Str
*DEL*:00000000H   CODE     ---       OLED_PutPixel
*DEL*:00000000H   CODE     ---       OLED_Rectangle
*DEL*:00000000H   CODE     ---       OLED_Road
      00FF14C4H   CODE     ---       OLED_Set_Pos
*DEL*:00000000H   CODE     ---       OLED_Show_BMP
*DEL*:00000000H   CODE     ---       OLED_Show_Frame80
*DEL*:00000000H   CODE     ---       OLED_Show_Frame94
*DEL*:00000000H   CODE     ---       OLED_Show_LQLogo
      00FF147AH   CODE     ---       OLED_WrCmd
      00FF149FH   CODE     ---       OLED_WrDat
*SFR* 00000080H   DATA     BYTE      P0
*SFR* 00000080H.5 DATA     BIT       P05
*SFR* 00000080H.7 DATA     BIT       P07
*SFR* 00000094H   DATA     BYTE      P0M0
*SFR* 00000093H   DATA     BYTE      P0M1
*SFR* 00000090H   DATA     BYTE      P1
L251 LINKER/LOCATER V4.66.93.0                                                        05/26/2024  22:09:54  PAGE 13


*SFR* 00000090H.4 DATA     BIT       P14
*SFR* 00000090H.5 DATA     BIT       P15
*SFR* 00000092H   DATA     BYTE      P1M0
*SFR* 00000091H   DATA     BYTE      P1M1
*SFR* 000000A0H   DATA     BYTE      P2
*SFR* 000000A0H.2 DATA     BIT       P22
*SFR* 000000A0H.3 DATA     BIT       P23
*SFR* 000000A0H.4 DATA     BIT       P24
*SFR* 000000A0H.5 DATA     BIT       P25
*SFR* 00000096H   DATA     BYTE      P2M0
*SFR* 00000095H   DATA     BYTE      P2M1
*SFR* 000000B0H   DATA     BYTE      P3
*SFR* 000000B0H.2 DATA     BIT       P32
*SFR* 000000B0H.3 DATA     BIT       P33
*SFR* 000000B2H   DATA     BYTE      P3M0
*SFR* 000000B1H   DATA     BYTE      P3M1
*SFR* 000000C0H   DATA     BYTE      P4
*SFR* 000000C0H.0 DATA     BIT       P40
*SFR* 000000C0H.2 DATA     BIT       P42
*SFR* 000000B4H   DATA     BYTE      P4M0
*SFR* 000000B3H   DATA     BYTE      P4M1
*SFR* 000000C8H   DATA     BYTE      P5
*SFR* 000000CAH   DATA     BYTE      P5M0
*SFR* 000000C9H   DATA     BYTE      P5M1
*SFR* 000000E8H   DATA     BYTE      P6
*SFR* 000000E8H.1 DATA     BIT       P61
*SFR* 000000E8H.2 DATA     BIT       P62
*SFR* 000000E8H.3 DATA     BIT       P63
*SFR* 000000E8H.4 DATA     BIT       P64
*SFR* 000000E8H.5 DATA     BIT       P65
*SFR* 000000E8H.6 DATA     BIT       P66
*SFR* 000000E8H.7 DATA     BIT       P67
*SFR* 000000CCH   DATA     BYTE      P6M0
*SFR* 000000CBH   DATA     BYTE      P6M1
*SFR* 000000F8H   DATA     BYTE      P7
*SFR* 000000F8H.0 DATA     BIT       P70
*SFR* 000000F8H.1 DATA     BIT       P71
*SFR* 000000F8H.2 DATA     BIT       P72
*SFR* 000000F8H.5 DATA     BIT       P75
*SFR* 000000F8H.7 DATA     BIT       P77
*SFR* 000000E2H   DATA     BYTE      P7M0
*SFR* 000000E1H   DATA     BYTE      P7M1
*SFR* 000000A2H   DATA     BYTE      P_SW1
*SFR* 000000BAH   DATA     BYTE      P_SW2
*SFR* 000000BBH   DATA     BYTE      P_SW3
*SFR* 00000087H   DATA     BYTE      PCON
*SFR* 000000D0H   DATA     BYTE      PSW
      00000114H   EDATA    WORD      PWM1_Duty
      00000116H   EDATA    WORD      PWM2_Duty
      00000118H   EDATA    WORD      PWM3_Duty
      0000011AH   EDATA    WORD      PWM4_Duty
      00FF0E75H   CODE     ---       Read_Encoder
*SFR* 00000098H.4 DATA     BIT       REN
*SFR* 00000098H.0 DATA     BIT       RI
      000000DDH   EDATA    INT       right
      00000021H   EDATA    CHAR      rptr
*SFR* 000000FFH   DATA     BYTE      RSTCFG
*SFR* 0000009AH   DATA     BYTE      S2CON
*SFR* 000000ACH   DATA     BYTE      S3CON
*SFR* 000000FEH   DATA     BYTE      S4BUF
*SFR* 000000FDH   DATA     BYTE      S4CON
*SFR* 00000099H   DATA     BYTE      SBUF
*SFR* 00000098H   DATA     BYTE      SCON
      00FF1422H   CODE     ---       ServoCtrl
      00FF0DE1H   CODE     ---       ServoInit
L251 LINKER/LOCATER V4.66.93.0                                                        05/26/2024  22:09:54  PAGE 14


*DEL*:00000000H   CODE     ---       SetTimer2Baudraye
*DEL*:00000000H   CODE     ---       Soft_SPI_Init
*DEL*:00000000H   CODE     ---       Soft_SPI_ReadWriteNbyte
*SFR* 000000CEH   DATA     BYTE      SPCTL
      0000000CH   EDATA    BYTE      SPI_errorid
      00000009H   EDATA    BYTE      SPI_ICM20602
      0000000BH   EDATA    BYTE      SPI_ICM20689
      0000000AH   EDATA    BYTE      SPI_ICM42605
      00000008H   EDATA    BYTE      SPI_MPU9250
      00FF025FH   CODE     NEAR LAB  sprintf
*SFR* 000000CDH   DATA     BYTE      SPSTAT
      00FF1015H   CODE     ---       sysinit
*SFR* 000000D6H   DATA     BYTE      T2H
*SFR* 000000D7H   DATA     BYTE      T2L
*SFR* 000000D4H   DATA     BYTE      T3H
*SFR* 000000D5H   DATA     BYTE      T3L
*SFR* 000000D2H   DATA     BYTE      T4H
*SFR* 000000D3H   DATA     BYTE      T4L
*SFR* 000000DDH   DATA     BYTE      T4T3M
*SFR* 00000088H   DATA     BYTE      TCON
*DEL*:00000000H   CODE     ---       Test_ADC
*DEL*:00000000H   CODE     ---       Test_CCD
*DEL*:00000000H   CODE     ---       Test_ComKEY_Tft
*DEL*:00000000H   CODE     ---       Test_GPIO_EXIT_Init
*DEL*:00000000H   CODE     ---       Test_GPIO_KEY
*DEL*:00000000H   CODE     ---       Test_GPIO_LED
*DEL*:00000000H   CODE     ---       Test_IIC_Gyro
*DEL*:00000000H   CODE     ---       Test_IIC_LQLSM6DSR
*DEL*:00000000H   CODE     ---       Test_IIC_VL53
*DEL*:00000000H   CODE     ---       Test_OLED
*DEL*:00000000H   CODE     ---       Test_SPI_Gyro
*DEL*:00000000H   CODE     ---       Test_SPI_LQLSM6DSR
*DEL*:00000000H   CODE     ---       TestEncoder
*SFR* 0000008CH   DATA     BYTE      TH0
*SFR* 0000008DH   DATA     BYTE      TH1
*SFR* 00000098H.1 DATA     BIT       TI
*DEL*:00000000H   CODE     ---       Timer0_init
      00FF1241H   CODE     ---       timer0_int
*DEL*:00000000H   CODE     ---       Timer1_init
      00FF1277H   CODE     ---       timer1_int
      00FF1611H   CODE     ---       Timer2_init
      00FF12ADH   CODE     ---       timer2_int
      00FF1601H   CODE     ---       Timer34EncInit
*DEL*:00000000H   CODE     ---       Timer3_init
      00FF12E3H   CODE     ---       timer3_int
*DEL*:00000000H   CODE     ---       Timer4_init
      00FF1319H   CODE     ---       timer4_int
*SFR* 0000008AH   DATA     BYTE      TL0
*SFR* 0000008BH   DATA     BYTE      TL1
*SFR* 00000089H   DATA     BYTE      TMOD
*SFR* 00000088H.4 DATA     BIT       TR0
*SFR* 00000088H.6 DATA     BIT       TR1
*DEL*:00000000H   CODE     ---       UART1_config
*DEL*:00000000H   CODE     ---       UART1_GetChar
      00FF1385H   CODE     ---       UART1_int
*DEL*:00000000H   CODE     ---       UART1_PutBuff
*DEL*:00000000H   CODE     ---       UART1_PutChar
*DEL*:00000000H   CODE     ---       UART1_PutStr
*DEL*:00000000H   CODE     ---       UART4_config
*DEL*:00000000H   CODE     ---       UART4_GetChar
      00FF11CFH   CODE     ---       UART4_int
*DEL*:00000000H   CODE     ---       UART4_PutBuff
*DEL*:00000000H   CODE     ---       UART4_PutChar
*DEL*:00000000H   CODE     ---       UART4_PutStr
      00000024H   EDATA    BYTE      Uart4_Receive
L251 LINKER/LOCATER V4.66.93.0                                                        05/26/2024  22:09:54  PAGE 15


*DEL*:00000000H   CODE     ---       UART4_SendInt16
*SFR* 000000F4H   DATA     BYTE      USBCON
*DEL*:00000000H   CODE     ---       VL53_Read_nByte
      00000123H   EDATA    BYTE      VL53_STAR
*DEL*:00000000H   CODE     ---       VL53_Write_Byte
      000000E1H   EDATA    WORD      Voltage
*SFR* 000000C1H   DATA     BYTE      WDT_CONTR
      00000022H   EDATA    INT       wptr
*SFR* 000000E9H   DATA     BYTE      WTST



SYMBOL TABLE OF MODULE:  .\Objects\LQ_STC32lib (LQ_GPIO_LED)

      VALUE       REP       CLASS    TYPE      SYMBOL NAME
      ====================================================
      ---         MODULE    ---      ---       LQ_GPIO_LED
      00FF0B0EH   PUBLIC    CODE     ---       LED_Ctrl
      00FF0086H   PUBLIC    CODE     ---       GPIO_LED_Init
      000000D0H   SFRSYM    DATA     BYTE      PSW
      0000009DH   SFRSYM    DATA     BYTE      IRCBAND
      00000097H   SFRSYM    DATA     BYTE      AUXR2
      000000EFH   SFRSYM    DATA     BYTE      AUXINTIF
      000000FDH   SFRSYM    DATA     BYTE      S4CON
      000000ACH   SFRSYM    DATA     BYTE      S3CON
      0000009AH   SFRSYM    DATA     BYTE      S2CON
      000000B7H   SFRSYM    DATA     BYTE      IPH
      000000CDH   SFRSYM    DATA     BYTE      SPSTAT
      000000DDH   SFRSYM    DATA     BYTE      T4T3M
      000000C1H   SFRSYM    DATA     BYTE      WDT_CONTR
      000000DFH   SFRSYM    DATA     BYTE      IP3
      000000F4H   SFRSYM    DATA     BYTE      USBCON
      000000B5H   SFRSYM    DATA     BYTE      IP2
      000000FFH   SFRSYM    DATA     BYTE      RSTCFG
      000000C7H   SFRSYM    DATA     BYTE      IAP_CONTR
      000000F9H   SFRSYM    DATA     BYTE      LINICR
      0000008EH   SFRSYM    DATA     BYTE      AUXR
      000000AFH   SFRSYM    DATA     BYTE      IE2
      000000E8H.2 SFRSYM    DATA     BIT       P62
      000000C0H.2 SFRSYM    DATA     BIT       P42
      00000088H   SFRSYM    DATA     BYTE      TCON
      00000089H   SFRSYM    DATA     BYTE      TMOD
      000000A0H.3 SFRSYM    DATA     BIT       P23
      00000098H   SFRSYM    DATA     BYTE      SCON
      000000A0H.2 SFRSYM    DATA     BIT       P22
      000000F1H   SFRSYM    DATA     BYTE      CANICR
      00000087H   SFRSYM    DATA     BYTE      PCON
      000000BCH   SFRSYM    DATA     BYTE      ADC_CONTR
      000000E7H   SFRSYM    DATA     BYTE      CMPCR2
      000000E6H   SFRSYM    DATA     BYTE      CMPCR1
      000000DEH   SFRSYM    DATA     BYTE      ADCCFG
      000000B8H   SFRSYM    DATA     BYTE      IP
      0000008FH   SFRSYM    DATA     BYTE      INTCLKO
      000000EEH   SFRSYM    DATA     BYTE      IP3H
      000000B6H   SFRSYM    DATA     BYTE      IP2H
      000000A8H   SFRSYM    DATA     BYTE      IE
      000000BBH   SFRSYM    DATA     BYTE      P_SW3
      000000BAH   SFRSYM    DATA     BYTE      P_SW2
      000000A2H   SFRSYM    DATA     BYTE      P_SW1
      000000CEH   SFRSYM    DATA     BYTE      SPCTL
      000000F8H   SFRSYM    DATA     BYTE      P7
      000000E8H   SFRSYM    DATA     BYTE      P6
      000000C8H   SFRSYM    DATA     BYTE      P5
      000000CBH   SFRSYM    DATA     BYTE      P6M1
      000000C0H   SFRSYM    DATA     BYTE      P4
L251 LINKER/LOCATER V4.66.93.0                                                        05/26/2024  22:09:54  PAGE 16


      000000CCH   SFRSYM    DATA     BYTE      P6M0
      000000B0H   SFRSYM    DATA     BYTE      P3
      000000B3H   SFRSYM    DATA     BYTE      P4M1
      000000A0H   SFRSYM    DATA     BYTE      P2
      000000B4H   SFRSYM    DATA     BYTE      P4M0
      00000090H   SFRSYM    DATA     BYTE      P1
      00000080H   SFRSYM    DATA     BYTE      P0

      00FF0086H   BLOCK     CODE     ---       LVL=0
      00FF0086H   LINE      CODE     ---       #30
      00FF0086H   LINE      CODE     ---       #32
      00FF0089H   LINE      CODE     ---       #33
      00FF008CH   LINE      CODE     ---       #34
      00FF008FH   LINE      CODE     ---       #35
      00FF0092H   LINE      CODE     ---       #36
      ---         BLOCKEND  ---      ---       LVL=0

      00FF0B0EH   BLOCK     CODE     ---       LVL=0
      WR6         REGSYM    ---      INT       LEDno
      WR4         REGSYM    ---      INT       sta
      00FF0B0EH   LINE      CODE     ---       #46
      00FF0B0EH   LINE      CODE     ---       #48
      00FF0B28H   LINE      CODE     ---       #50
      00FF0B28H   LINE      CODE     ---       #51
      00FF0B2FH   LINE      CODE     ---       #52
      00FF0B38H   LINE      CODE     ---       #53
      00FF0B49H   LINE      CODE     ---       #54
      00FF0B4AH   LINE      CODE     ---       #56
      00FF0B4AH   LINE      CODE     ---       #57
      00FF0B51H   LINE      CODE     ---       #58
      00FF0B5AH   LINE      CODE     ---       #59
      00FF0B6BH   LINE      CODE     ---       #60
      00FF0B6CH   LINE      CODE     ---       #62
      00FF0B6CH   LINE      CODE     ---       #63
      00FF0B73H   LINE      CODE     ---       #64
      00FF0B7CH   LINE      CODE     ---       #65
      00FF0B8AH   LINE      CODE     ---       #66
      00FF0B8BH   LINE      CODE     ---       #68
      00FF0B8BH   LINE      CODE     ---       #69
      00FF0B92H   LINE      CODE     ---       #70
      00FF0B9BH   LINE      CODE     ---       #71
      00FF0BA9H   LINE      CODE     ---       #72
      00FF0BAAH   LINE      CODE     ---       #73
      00FF0BAAH   LINE      CODE     ---       #74
      00FF0BAEH   LINE      CODE     ---       #76
      00FF0BB0H   LINE      CODE     ---       #77
      00FF0BB2H   LINE      CODE     ---       #78
      00FF0BB4H   LINE      CODE     ---       #79
      00FF0BB6H   LINE      CODE     ---       #80
      00FF0BB7H   LINE      CODE     ---       #81
      00FF0BBDH   LINE      CODE     ---       #83
      00FF0BBFH   LINE      CODE     ---       #84
      00FF0BC1H   LINE      CODE     ---       #85
      00FF0BC3H   LINE      CODE     ---       #86
      00FF0BC5H   LINE      CODE     ---       #87
      00FF0BC6H   LINE      CODE     ---       #88
      00FF0BCCH   LINE      CODE     ---       #90
      00FF0BD5H   LINE      CODE     ---       #91
      00FF0BDEH   LINE      CODE     ---       #92
      00FF0BE7H   LINE      CODE     ---       #93
      00FF0BEFH   LINE      CODE     ---       #94
      00FF0BEFH   LINE      CODE     ---       #95
      00FF0BEFH   LINE      CODE     ---       #96
      00FF0BEFH   LINE      CODE     ---       #97
      00FF0BEFH   LINE      CODE     ---       #98
L251 LINKER/LOCATER V4.66.93.0                                                        05/26/2024  22:09:54  PAGE 17


      00FF0BEFH   LINE      CODE     ---       #99
      ---         BLOCKEND  ---      ---       LVL=0
      WR4         REGSYM    ---      WORD      time
      00000121H   SYMBOL    EDATA    INT       temp

      ---         MODULE    ---      ---       LQ_GPIO_KEY
      00FF1630H   PUBLIC    CODE     ---       GPIO_KEY_Init
      000000D0H   SFRSYM    DATA     BYTE      PSW
      0000009DH   SFRSYM    DATA     BYTE      IRCBAND
      00000097H   SFRSYM    DATA     BYTE      AUXR2
      000000EFH   SFRSYM    DATA     BYTE      AUXINTIF
      000000FDH   SFRSYM    DATA     BYTE      S4CON
      000000ACH   SFRSYM    DATA     BYTE      S3CON
      0000009AH   SFRSYM    DATA     BYTE      S2CON
      000000B7H   SFRSYM    DATA     BYTE      IPH
      000000CDH   SFRSYM    DATA     BYTE      SPSTAT
      000000DDH   SFRSYM    DATA     BYTE      T4T3M
      000000C1H   SFRSYM    DATA     BYTE      WDT_CONTR
      000000DFH   SFRSYM    DATA     BYTE      IP3
      000000F4H   SFRSYM    DATA     BYTE      USBCON
      000000B5H   SFRSYM    DATA     BYTE      IP2
      000000FFH   SFRSYM    DATA     BYTE      RSTCFG
      000000C7H   SFRSYM    DATA     BYTE      IAP_CONTR
      000000F9H   SFRSYM    DATA     BYTE      LINICR
      0000008EH   SFRSYM    DATA     BYTE      AUXR
      000000AFH   SFRSYM    DATA     BYTE      IE2
      000000F8H.2 SFRSYM    DATA     BIT       P72
      000000F8H.1 SFRSYM    DATA     BIT       P71
      000000F8H.0 SFRSYM    DATA     BIT       P70
      000000B0H.3 SFRSYM    DATA     BIT       P33
      00000088H   SFRSYM    DATA     BYTE      TCON
      00000089H   SFRSYM    DATA     BYTE      TMOD
      000000B0H.2 SFRSYM    DATA     BIT       P32
      00000098H   SFRSYM    DATA     BYTE      SCON
      000000F1H   SFRSYM    DATA     BYTE      CANICR
      00000087H   SFRSYM    DATA     BYTE      PCON
      000000BCH   SFRSYM    DATA     BYTE      ADC_CONTR
      000000E7H   SFRSYM    DATA     BYTE      CMPCR2
      000000E6H   SFRSYM    DATA     BYTE      CMPCR1
      000000DEH   SFRSYM    DATA     BYTE      ADCCFG
      000000B8H   SFRSYM    DATA     BYTE      IP
      0000008FH   SFRSYM    DATA     BYTE      INTCLKO
      000000EEH   SFRSYM    DATA     BYTE      IP3H
      000000B6H   SFRSYM    DATA     BYTE      IP2H
      000000A8H   SFRSYM    DATA     BYTE      IE
      000000BBH   SFRSYM    DATA     BYTE      P_SW3
      000000BAH   SFRSYM    DATA     BYTE      P_SW2
      000000A2H   SFRSYM    DATA     BYTE      P_SW1
      000000CEH   SFRSYM    DATA     BYTE      SPCTL
      000000F8H   SFRSYM    DATA     BYTE      P7
      000000E1H   SFRSYM    DATA     BYTE      P7M1
      000000E8H   SFRSYM    DATA     BYTE      P6
      000000C8H   SFRSYM    DATA     BYTE      P5
      000000E2H   SFRSYM    DATA     BYTE      P7M0
      000000C0H   SFRSYM    DATA     BYTE      P4
      000000B0H   SFRSYM    DATA     BYTE      P3
      000000A0H   SFRSYM    DATA     BYTE      P2
      000000B1H   SFRSYM    DATA     BYTE      P3M1
      00000090H   SFRSYM    DATA     BYTE      P1
      000000B2H   SFRSYM    DATA     BYTE      P3M0
      00000080H   SFRSYM    DATA     BYTE      P0

      00FF1630H   BLOCK     CODE     ---       LVL=0
      00FF1630H   LINE      CODE     ---       #28
      00FF1630H   LINE      CODE     ---       #30
L251 LINKER/LOCATER V4.66.93.0                                                        05/26/2024  22:09:54  PAGE 18


      00FF1636H   LINE      CODE     ---       #31
      00FF163CH   LINE      CODE     ---       #32
      ---         BLOCKEND  ---      ---       LVL=0
      WR6         REGSYM    ---      INT       KEYno
      R11         REGSYM    ---      BYTE      tm
      R7          REGSYM    ---      BYTE      k0
      R10         REGSYM    ---      BYTE      k1
      R11         REGSYM    ---      BYTE      k2
      R14         REGSYM    ---      BYTE      k
      R11         REGSYM    ---      BYTE      k

      ---         MODULE    ---      ---       LQ_OLED096
      00FF167AH   PUBLIC    HCONST   ---       F14x16
      00FF196EH   PUBLIC    HCONST   ---       F14x16_Idx
      00FF19A5H   PUBLIC    HCONST   ---       F6x8
      00FF1BCDH   PUBLIC    HCONST   ---       F8X16
      00FF21BDH   PUBLIC    HCONST   ---       longqiu104x64
      00FF0CA1H   PUBLIC    CODE     ---       OLED_Init
      00FF14C4H   PUBLIC    CODE     ---       OLED_Set_Pos
      00FF147AH   PUBLIC    CODE     ---       OLED_WrCmd
      00FF13BAH   PUBLIC    CODE     ---       OLED_CLS
      00FF149FH   PUBLIC    CODE     ---       OLED_WrDat
      00FF0BF0H   PUBLIC    CODE     ---       OLED_P6x8Str
      000000D0H   SFRSYM    DATA     BYTE      PSW
      0000009DH   SFRSYM    DATA     BYTE      IRCBAND
      00000097H   SFRSYM    DATA     BYTE      AUXR2
      000000EFH   SFRSYM    DATA     BYTE      AUXINTIF
      000000FDH   SFRSYM    DATA     BYTE      S4CON
      000000ACH   SFRSYM    DATA     BYTE      S3CON
      0000009AH   SFRSYM    DATA     BYTE      S2CON
      000000B7H   SFRSYM    DATA     BYTE      IPH
      000000CDH   SFRSYM    DATA     BYTE      SPSTAT
      000000DDH   SFRSYM    DATA     BYTE      T4T3M
      000000C1H   SFRSYM    DATA     BYTE      WDT_CONTR
      000000DFH   SFRSYM    DATA     BYTE      IP3
      000000F4H   SFRSYM    DATA     BYTE      USBCON
      000000B5H   SFRSYM    DATA     BYTE      IP2
      000000FFH   SFRSYM    DATA     BYTE      RSTCFG
      000000C7H   SFRSYM    DATA     BYTE      IAP_CONTR
      000000F9H   SFRSYM    DATA     BYTE      LINICR
      0000008EH   SFRSYM    DATA     BYTE      AUXR
      000000AFH   SFRSYM    DATA     BYTE      IE2
      000000E8H.4 SFRSYM    DATA     BIT       P64
      000000E8H.3 SFRSYM    DATA     BIT       P63
      000000E8H.2 SFRSYM    DATA     BIT       P62
      000000E8H.1 SFRSYM    DATA     BIT       P61
      00000088H   SFRSYM    DATA     BYTE      TCON
      00000089H   SFRSYM    DATA     BYTE      TMOD
      00000098H   SFRSYM    DATA     BYTE      SCON
      000000F1H   SFRSYM    DATA     BYTE      CANICR
      00000087H   SFRSYM    DATA     BYTE      PCON
      000000BCH   SFRSYM    DATA     BYTE      ADC_CONTR
      000000E7H   SFRSYM    DATA     BYTE      CMPCR2
      000000E6H   SFRSYM    DATA     BYTE      CMPCR1
      000000DEH   SFRSYM    DATA     BYTE      ADCCFG
      000000B8H   SFRSYM    DATA     BYTE      IP
      0000008FH   SFRSYM    DATA     BYTE      INTCLKO
      000000EEH   SFRSYM    DATA     BYTE      IP3H
      000000B6H   SFRSYM    DATA     BYTE      IP2H
      000000A8H   SFRSYM    DATA     BYTE      IE
      000000BBH   SFRSYM    DATA     BYTE      P_SW3
      000000BAH   SFRSYM    DATA     BYTE      P_SW2
      000000A2H   SFRSYM    DATA     BYTE      P_SW1
      000000CEH   SFRSYM    DATA     BYTE      SPCTL
      000000F8H   SFRSYM    DATA     BYTE      P7
L251 LINKER/LOCATER V4.66.93.0                                                        05/26/2024  22:09:54  PAGE 19


      000000E8H   SFRSYM    DATA     BYTE      P6
      000000C8H   SFRSYM    DATA     BYTE      P5
      000000CBH   SFRSYM    DATA     BYTE      P6M1
      000000C0H   SFRSYM    DATA     BYTE      P4
      000000CCH   SFRSYM    DATA     BYTE      P6M0
      000000B0H   SFRSYM    DATA     BYTE      P3
      000000A0H   SFRSYM    DATA     BYTE      P2
      00000090H   SFRSYM    DATA     BYTE      P1
      00000080H   SFRSYM    DATA     BYTE      P0

      00FF0CA1H   BLOCK     CODE     ---       LVL=0
      00FF0CA1H   LINE      CODE     ---       #44
      00FF0CA1H   LINE      CODE     ---       #47
      00FF0CA7H   LINE      CODE     ---       #49
      00FF0CA9H   LINE      CODE     ---       #51
      00FF0CABH   LINE      CODE     ---       #52
      00FF0CB2H   LINE      CODE     ---       #53
      00FF0CB4H   LINE      CODE     ---       #55
      00FF0CB9H   LINE      CODE     ---       #56
      00FF0CBDH   LINE      CODE     ---       #57
      00FF0CC2H   LINE      CODE     ---       #58
      00FF0CC7H   LINE      CODE     ---       #59
      00FF0CCCH   LINE      CODE     ---       #60
      00FF0CD1H   LINE      CODE     ---       #61
      00FF0CD6H   LINE      CODE     ---       #62
      00FF0CDBH   LINE      CODE     ---       #63
      00FF0CE0H   LINE      CODE     ---       #64
      00FF0CE5H   LINE      CODE     ---       #65
      00FF0CEAH   LINE      CODE     ---       #66
      00FF0CEFH   LINE      CODE     ---       #67
      00FF0CF3H   LINE      CODE     ---       #68
      00FF0CF8H   LINE      CODE     ---       #69
      00FF0CFDH   LINE      CODE     ---       #70
      00FF0D02H   LINE      CODE     ---       #71
      00FF0D07H   LINE      CODE     ---       #72
      00FF0D0CH   LINE      CODE     ---       #73
      00FF0D11H   LINE      CODE     ---       #74
      00FF0D16H   LINE      CODE     ---       #75
      00FF0D1BH   LINE      CODE     ---       #76
      00FF0D20H   LINE      CODE     ---       #77
      00FF0D25H   LINE      CODE     ---       #78
      00FF0D2AH   LINE      CODE     ---       #79
      00FF0D2FH   LINE      CODE     ---       #80
      00FF0D34H   LINE      CODE     ---       #81
      00FF0D39H   LINE      CODE     ---       #82
      00FF0D3EH   LINE      CODE     ---       #83
      00FF0D41H   LINE      CODE     ---       #84
      ---         BLOCKEND  ---      ---       LVL=0

      00FF149FH   BLOCK     CODE     ---       LVL=0
      R7          REGSYM    ---      BYTE      dat
      00FF14A1H   BLOCK     CODE     NEAR LAB  LVL=1
      R6          REGSYM    ---      BYTE      i
      ---         BLOCKEND  ---      ---       LVL=1
      00FF149FH   LINE      CODE     ---       #419
      00FF14A1H   LINE      CODE     ---       #420
      00FF14A1H   LINE      CODE     ---       #421
      00FF14A4H   LINE      CODE     ---       #423
      00FF14A6H   LINE      CODE     ---       #424
      00FF14A8H   LINE      CODE     ---       #425
      00FF14AAH   LINE      CODE     ---       #427
      00FF14B3H   LINE      CODE     ---       #428
      00FF14B5H   LINE      CODE     ---       #429
      00FF14B7H   LINE      CODE     ---       #431
      00FF14B9H   LINE      CODE     ---       #432
L251 LINKER/LOCATER V4.66.93.0                                                        05/26/2024  22:09:54  PAGE 20


      00FF14BBH   LINE      CODE     ---       #433
      00FF14C3H   LINE      CODE     ---       #435
      ---         BLOCKEND  ---      ---       LVL=0

      00FF147AH   BLOCK     CODE     ---       LVL=0
      R7          REGSYM    ---      BYTE      cmd
      00FF147CH   BLOCK     CODE     NEAR LAB  LVL=1
      R6          REGSYM    ---      BYTE      i
      ---         BLOCKEND  ---      ---       LVL=1
      00FF147AH   LINE      CODE     ---       #450
      00FF147CH   LINE      CODE     ---       #451
      00FF147CH   LINE      CODE     ---       #452
      00FF147FH   LINE      CODE     ---       #455
      00FF1481H   LINE      CODE     ---       #456
      00FF1483H   LINE      CODE     ---       #457
      00FF1485H   LINE      CODE     ---       #459
      00FF148EH   LINE      CODE     ---       #460
      00FF1490H   LINE      CODE     ---       #461
      00FF1492H   LINE      CODE     ---       #462
      00FF1494H   LINE      CODE     ---       #463
      00FF1496H   LINE      CODE     ---       #464
      00FF149EH   LINE      CODE     ---       #466
      ---         BLOCKEND  ---      ---       LVL=0

      00FF14C4H   BLOCK     CODE     ---       LVL=0
      R15         REGSYM    ---      BYTE      x
      R10         REGSYM    ---      BYTE      y
      00FF14C8H   BLOCK     CODE     NEAR LAB  LVL=1
      R11         REGSYM    ---      BYTE      tm
      ---         BLOCKEND  ---      ---       LVL=1
      00FF14C4H   LINE      CODE     ---       #482
      00FF14C8H   LINE      CODE     ---       #483
      00FF14C8H   LINE      CODE     ---       #485
      00FF14CEH   LINE      CODE     ---       #486
      00FF14D1H   LINE      CODE     ---       #487
      00FF14DDH   LINE      CODE     ---       #488
      00FF14E4H   LINE      CODE     ---       #489
      ---         BLOCKEND  ---      ---       LVL=0
      R15         REGSYM    ---      BYTE      y
      R13         REGSYM    ---      BYTE      x
      R7          REGSYM    ---      BYTE      tm

      00FF13BAH   BLOCK     CODE     ---       LVL=0
      00FF13BEH   BLOCK     CODE     NEAR LAB  LVL=1
      R15         REGSYM    ---      BYTE      y
      R13         REGSYM    ---      BYTE      x
      R7          REGSYM    ---      BYTE      tm
      ---         BLOCKEND  ---      ---       LVL=1
      00FF13BAH   LINE      CODE     ---       #533
      00FF13BEH   LINE      CODE     ---       #534
      00FF13BEH   LINE      CODE     ---       #537
      00FF13C0H   LINE      CODE     ---       #539
      00FF13C6H   LINE      CODE     ---       #540
      00FF13CBH   LINE      CODE     ---       #541
      00FF13D0H   LINE      CODE     ---       #542
      00FF13D5H   LINE      CODE     ---       #543
      00FF13D7H   LINE      CODE     ---       #544
      00FF13E2H   LINE      CODE     ---       #545
      00FF13E9H   LINE      CODE     ---       #546
      ---         BLOCKEND  ---      ---       LVL=0
      R14         REGSYM    ---      BYTE      x
      R15         REGSYM    ---      BYTE      y
      R13         REGSYM    ---      BYTE      data1
      R15         REGSYM    ---      BYTE      x
      R14         REGSYM    ---      BYTE      y
L251 LINKER/LOCATER V4.66.93.0                                                        05/26/2024  22:09:54  PAGE 21


      R15         REGSYM    ---      BYTE      x1
      R12         REGSYM    ---      BYTE      y1
      R13         REGSYM    ---      BYTE      y2
      R14         REGSYM    ---      BYTE      gif

      00FF0BF0H   BLOCK     CODE     ---       LVL=0
      000000B5H   SYMBOL    EDATA    BYTE      x
      000000B6H   SYMBOL    EDATA    BYTE      y
      REG=3       REGSYM    ---      ---       ch
      00FF0BFCH   BLOCK     CODE     NEAR LAB  LVL=1
      000000B7H   SYMBOL    EDATA    BYTE      c
      000000B8H   SYMBOL    EDATA    BYTE      i
      000000B9H   SYMBOL    EDATA    BYTE      j
      ---         BLOCKEND  ---      ---       LVL=1
      00FF0BF0H   LINE      CODE     ---       #672
      00FF0BFCH   LINE      CODE     ---       #673
      00FF0BFCH   LINE      CODE     ---       #674
      00FF0C05H   LINE      CODE     ---       #675
      00FF0C08H   LINE      CODE     ---       #677
      00FF0C1FH   LINE      CODE     ---       #678
      00FF0C36H   LINE      CODE     ---       #679
      00FF0C41H   LINE      CODE     ---       #680
      00FF0C46H   LINE      CODE     ---       #681
      00FF0C79H   LINE      CODE     ---       #682
      00FF0C83H   LINE      CODE     ---       #683
      00FF0C8CH   LINE      CODE     ---       #684
      00FF0C9EH   LINE      CODE     ---       #685
      ---         BLOCKEND  ---      ---       LVL=0
      REG=3       REGSYM    ---      ---       ch
      REG=3       REGSYM    ---      ---       ch
      R10         REGSYM    ---      BYTE      y0
      R2          REGSYM    ---      BYTE      wide
      R3          REGSYM    ---      BYTE      high
      REG=3       REGSYM    ---      ---       bmp
      WR14        REGSYM    ---      WORD      ii
      R12         REGSYM    ---      BYTE      x
      R13         REGSYM    ---      BYTE      y
      REG=3       REGSYM    ---      ---       Pixle

      ---         MODULE    ---      ---       LQ_IIC_Gyro
      00FF157BH   PUBLIC    CODE     ---       MPU_Set_Gyro_Fsr
      00FF0066H   PUBLIC    CODE     ---       delayms_mpu
      00FF0F8CH   PUBLIC    CODE     ---       MPU6050_Init
      00FF114CH   PUBLIC    CODE     ---       MPU_Set_LPF
      00FF1621H   PUBLIC    CODE     ---       MPU_Read_Byte
      00FF1591H   PUBLIC    CODE     ---       MPU_Set_Accel_Fsr
      00FF0006H   PUBLIC    CODE     ---       MPU_Read_Len
      00FF000EH   PUBLIC    CODE     ---       MPU_Write_Byte
      00FF13EEH   PUBLIC    CODE     ---       MPU_Set_Rate
      000000FBH   PUBLIC    EDATA    BYTE      IIC_ICM20602
      000000FCH   PUBLIC    EDATA    BYTE      Gyro_ID
      000000FDH   PUBLIC    EDATA    BYTE      IIC_ICM42605
      000000FEH   PUBLIC    EDATA    BYTE      IIC_ICM20689
      000000FFH   PUBLIC    EDATA    INT       aacx
      00000101H   PUBLIC    EDATA    INT       aacy
      00000103H   PUBLIC    EDATA    INT       aacz
      00000105H   PUBLIC    EDATA    INT       magx
      00000107H   PUBLIC    EDATA    INT       magy
      00000109H   PUBLIC    EDATA    INT       magz
      0000010BH   PUBLIC    EDATA    BYTE      IIC_errorid
      0000010CH   PUBLIC    EDATA    INT       gyrox
      0000010EH   PUBLIC    EDATA    INT       gyroy
      00000110H   PUBLIC    EDATA    INT       gyroz
      00000112H   PUBLIC    EDATA    BYTE      IIC_MPU6050
      00000113H   PUBLIC    EDATA    BYTE      IIC_MPU9250
L251 LINKER/LOCATER V4.66.93.0                                                        05/26/2024  22:09:54  PAGE 22


      000000D0H   SFRSYM    DATA     BYTE      PSW
      0000009DH   SFRSYM    DATA     BYTE      IRCBAND
      00000097H   SFRSYM    DATA     BYTE      AUXR2
      000000EFH   SFRSYM    DATA     BYTE      AUXINTIF
      000000FDH   SFRSYM    DATA     BYTE      S4CON
      000000ACH   SFRSYM    DATA     BYTE      S3CON
      0000009AH   SFRSYM    DATA     BYTE      S2CON
      000000B7H   SFRSYM    DATA     BYTE      IPH
      000000CDH   SFRSYM    DATA     BYTE      SPSTAT
      000000DDH   SFRSYM    DATA     BYTE      T4T3M
      000000C1H   SFRSYM    DATA     BYTE      WDT_CONTR
      000000DFH   SFRSYM    DATA     BYTE      IP3
      000000F4H   SFRSYM    DATA     BYTE      USBCON
      000000B5H   SFRSYM    DATA     BYTE      IP2
      000000FFH   SFRSYM    DATA     BYTE      RSTCFG
      000000C7H   SFRSYM    DATA     BYTE      IAP_CONTR
      000000F9H   SFRSYM    DATA     BYTE      LINICR
      0000008EH   SFRSYM    DATA     BYTE      AUXR
      000000AFH   SFRSYM    DATA     BYTE      IE2
      00000088H   SFRSYM    DATA     BYTE      TCON
      00000089H   SFRSYM    DATA     BYTE      TMOD
      00000098H   SFRSYM    DATA     BYTE      SCON
      000000F1H   SFRSYM    DATA     BYTE      CANICR
      00000087H   SFRSYM    DATA     BYTE      PCON
      000000BCH   SFRSYM    DATA     BYTE      ADC_CONTR
      000000E7H   SFRSYM    DATA     BYTE      CMPCR2
      000000E6H   SFRSYM    DATA     BYTE      CMPCR1
      000000DEH   SFRSYM    DATA     BYTE      ADCCFG
      000000B8H   SFRSYM    DATA     BYTE      IP
      0000008FH   SFRSYM    DATA     BYTE      INTCLKO
      000000EEH   SFRSYM    DATA     BYTE      IP3H
      000000B6H   SFRSYM    DATA     BYTE      IP2H
      000000A8H   SFRSYM    DATA     BYTE      IE
      000000BBH   SFRSYM    DATA     BYTE      P_SW3
      000000BAH   SFRSYM    DATA     BYTE      P_SW2
      000000A2H   SFRSYM    DATA     BYTE      P_SW1
      000000CEH   SFRSYM    DATA     BYTE      SPCTL
      000000F8H   SFRSYM    DATA     BYTE      P7
      000000E8H   SFRSYM    DATA     BYTE      P6
      000000C8H   SFRSYM    DATA     BYTE      P5
      000000C0H   SFRSYM    DATA     BYTE      P4
      000000B0H   SFRSYM    DATA     BYTE      P3
      000000A0H   SFRSYM    DATA     BYTE      P2
      00000090H   SFRSYM    DATA     BYTE      P1
      00000080H   SFRSYM    DATA     BYTE      P0
      R7          REGSYM    ---      BYTE      res
      R7          REGSYM    ---      BYTE      res

      00FF0066H   BLOCK     CODE     ---       LVL=0
      WR2         REGSYM    ---      WORD      ms
      00FF006AH   BLOCK     CODE     NEAR LAB  LVL=1
      WR0         REGSYM    ---      WORD      i
      ---         BLOCKEND  ---      ---       LVL=1
      00FF0066H   LINE      CODE     ---       #236
      00FF0068H   LINE      CODE     ---       #238
      00FF006AH   LINE      CODE     ---       #239
      00FF006AH   LINE      CODE     ---       #240
      00FF006EH   LINE      CODE     ---       #241
      00FF0070H   LINE      CODE     ---       #243
      00FF0071H   LINE      CODE     ---       #244
      00FF0079H   LINE      CODE     ---       #245
      00FF0081H   LINE      CODE     ---       #246
      ---         BLOCKEND  ---      ---       LVL=0

      00FF0F8CH   BLOCK     CODE     ---       LVL=0
L251 LINKER/LOCATER V4.66.93.0                                                        05/26/2024  22:09:54  PAGE 23


      WR4         REGSYM    ---      INT       res
      00FF0F8CH   LINE      CODE     ---       #261
      00FF0F8CH   LINE      CODE     ---       #262
      00FF0F8CH   LINE      CODE     ---       #264
      00FF0F92H   LINE      CODE     ---       #312
      00FF0F99H   LINE      CODE     ---       #313
      00FF0F9BH   LINE      CODE     ---       #314
      00FF0F9BH   LINE      CODE     ---       #317
      00FF0FA5H   LINE      CODE     ---       #318
      00FF0FAFH   LINE      CODE     ---       #319
      00FF0FB2H   LINE      CODE     ---       #321
      00FF0FB2H   LINE      CODE     ---       #322
      00FF0FBDH   LINE      CODE     ---       #323
      00FF0FC4H   LINE      CODE     ---       #324
      00FF0FCEH   LINE      CODE     ---       #325
      00FF0FD3H   LINE      CODE     ---       #326
      00FF0FD8H   LINE      CODE     ---       #327
      00FF0FDFH   LINE      CODE     ---       #328
      00FF0FEAH   LINE      CODE     ---       #329
      00FF0FF4H   LINE      CODE     ---       #330
      00FF0FFEH   LINE      CODE     ---       #331
      00FF1009H   LINE      CODE     ---       #332
      00FF1013H   LINE      CODE     ---       #334
      00FF1014H   LINE      CODE     ---       #335
      00FF1014H   LINE      CODE     ---       #336
      ---         BLOCKEND  ---      ---       LVL=0

      00FF157BH   BLOCK     CODE     ---       LVL=0
      R6          REGSYM    ---      BYTE      fsr
      00FF157BH   LINE      CODE     ---       #351
      00FF157DH   LINE      CODE     ---       #353
      ---         BLOCKEND  ---      ---       LVL=0

      00FF1591H   BLOCK     CODE     ---       LVL=0
      R6          REGSYM    ---      BYTE      fsr
      00FF1591H   LINE      CODE     ---       #369
      00FF1593H   LINE      CODE     ---       #371
      ---         BLOCKEND  ---      ---       LVL=0

      00FF114CH   BLOCK     CODE     ---       LVL=0
      WR6         REGSYM    ---      WORD      lpf
      R10         REGSYM    ---      BYTE      dat
      00FF114CH   LINE      CODE     ---       #387
      00FF114CH   LINE      CODE     ---       #388
      00FF114CH   LINE      CODE     ---       #389
      00FF114CH   LINE      CODE     ---       #390
      00FF1157H   LINE      CODE     ---       #391
      00FF1162H   LINE      CODE     ---       #392
      00FF116DH   LINE      CODE     ---       #393
      00FF1178H   LINE      CODE     ---       #394
      00FF1183H   LINE      CODE     ---       #395
      00FF1186H   LINE      CODE     ---       #396
      ---         BLOCKEND  ---      ---       LVL=0

      00FF13EEH   BLOCK     CODE     ---       LVL=0
      WR14        REGSYM    ---      WORD      rate
      00FF13F2H   BLOCK     CODE     NEAR LAB  LVL=1
      R6          REGSYM    ---      BYTE      dat
      ---         BLOCKEND  ---      ---       LVL=1
      00FF13EEH   LINE      CODE     ---       #412
      00FF13F2H   LINE      CODE     ---       #413
      00FF13F2H   LINE      CODE     ---       #415
      00FF13FCH   LINE      CODE     ---       #416
      00FF1406H   LINE      CODE     ---       #417
      00FF1410H   LINE      CODE     ---       #418
L251 LINKER/LOCATER V4.66.93.0                                                        05/26/2024  22:09:54  PAGE 24


      00FF1418H   LINE      CODE     ---       #419
      00FF141FH   LINE      CODE     ---       #420
      ---         BLOCKEND  ---      ---       LVL=0
      WR4         REGSYM    ---      INT       raw
      DR4         REGSYM    ---      FLOAT     temp
      REG=3       REGSYM    ---      ---       gy
      R11         REGSYM    ---      BYTE      res
      REG=3       REGSYM    ---      ---       ay
      R11         REGSYM    ---      BYTE      res
      REG=3       REGSYM    ---      ---       ay
      REG=3       REGSYM    ---      ---       my

      00FF0006H   BLOCK     CODE     ---       LVL=0
      R5          REGSYM    ---      BYTE      addr
      R7          REGSYM    ---      BYTE      reg
      R6          REGSYM    ---      BYTE      len
      REG=7       REGSYM    ---      ---       buf
      00FF0006H   LINE      CODE     ---       #593
      00FF0006H   LINE      CODE     ---       #595
      ---         BLOCKEND  ---      ---       LVL=0
      R5          REGSYM    ---      BYTE      addr
      R7          REGSYM    ---      BYTE      reg
      R6          REGSYM    ---      BYTE      len
      REG=7       REGSYM    ---      ---       buf

      00FF000EH   BLOCK     CODE     ---       LVL=0
      R5          REGSYM    ---      BYTE      addr
      R7          REGSYM    ---      BYTE      reg
      R6          REGSYM    ---      BYTE      value
      00FF000EH   LINE      CODE     ---       #635
      00FF000EH   LINE      CODE     ---       #637
      ---         BLOCKEND  ---      ---       LVL=0

      00FF1621H   BLOCK     CODE     ---       LVL=0
      R11         REGSYM    ---      BYTE      addr
      R10         REGSYM    ---      BYTE      reg
      000000A5H   SYMBOL    EDATA    ---       value
      00FF1621H   LINE      CODE     ---       #654
      00FF1621H   LINE      CODE     ---       #655
      00FF1621H   LINE      CODE     ---       #657
      00FF162BH   LINE      CODE     ---       #658
      00FF162FH   LINE      CODE     ---       #659
      ---         BLOCKEND  ---      ---       LVL=0
      R11         REGSYM    ---      BYTE      dev
      R10         REGSYM    ---      BYTE      reg
      REG=3       REGSYM    ---      ---       ay
      R15         REGSYM    ---      BYTE      res

      ---         MODULE    ---      ---       ANO_DT
      00000065H   PUBLIC    EDATA    ---       data_to_send
      000000D0H   SFRSYM    DATA     BYTE      PSW
      0000009DH   SFRSYM    DATA     BYTE      IRCBAND
      00000097H   SFRSYM    DATA     BYTE      AUXR2
      000000EFH   SFRSYM    DATA     BYTE      AUXINTIF
      000000FDH   SFRSYM    DATA     BYTE      S4CON
      000000ACH   SFRSYM    DATA     BYTE      S3CON
      0000009AH   SFRSYM    DATA     BYTE      S2CON
      000000FEH   SFRSYM    DATA     BYTE      S4BUF
      000000B7H   SFRSYM    DATA     BYTE      IPH
      000000CDH   SFRSYM    DATA     BYTE      SPSTAT
      000000DDH   SFRSYM    DATA     BYTE      T4T3M
      000000C1H   SFRSYM    DATA     BYTE      WDT_CONTR
      000000DFH   SFRSYM    DATA     BYTE      IP3
      000000F4H   SFRSYM    DATA     BYTE      USBCON
      000000B5H   SFRSYM    DATA     BYTE      IP2
L251 LINKER/LOCATER V4.66.93.0                                                        05/26/2024  22:09:54  PAGE 25


      000000FFH   SFRSYM    DATA     BYTE      RSTCFG
      000000C7H   SFRSYM    DATA     BYTE      IAP_CONTR
      000000F9H   SFRSYM    DATA     BYTE      LINICR
      0000008EH   SFRSYM    DATA     BYTE      AUXR
      000000AFH   SFRSYM    DATA     BYTE      IE2
      00000088H   SFRSYM    DATA     BYTE      TCON
      00000089H   SFRSYM    DATA     BYTE      TMOD
      00000098H   SFRSYM    DATA     BYTE      SCON
      000000F1H   SFRSYM    DATA     BYTE      CANICR
      00000087H   SFRSYM    DATA     BYTE      PCON
      000000BCH   SFRSYM    DATA     BYTE      ADC_CONTR
      000000E7H   SFRSYM    DATA     BYTE      CMPCR2
      000000E6H   SFRSYM    DATA     BYTE      CMPCR1
      000000DEH   SFRSYM    DATA     BYTE      ADCCFG
      000000B8H   SFRSYM    DATA     BYTE      IP
      0000008FH   SFRSYM    DATA     BYTE      INTCLKO
      000000EEH   SFRSYM    DATA     BYTE      IP3H
      000000B6H   SFRSYM    DATA     BYTE      IP2H
      000000A8H   SFRSYM    DATA     BYTE      IE
      000000BBH   SFRSYM    DATA     BYTE      P_SW3
      000000BAH   SFRSYM    DATA     BYTE      P_SW2
      000000A2H   SFRSYM    DATA     BYTE      P_SW1
      000000CEH   SFRSYM    DATA     BYTE      SPCTL
      000000F8H   SFRSYM    DATA     BYTE      P7
      000000E8H   SFRSYM    DATA     BYTE      P6
      000000C8H   SFRSYM    DATA     BYTE      P5
      000000C0H   SFRSYM    DATA     BYTE      P4
      000000B0H   SFRSYM    DATA     BYTE      P3
      000000A0H   SFRSYM    DATA     BYTE      P2
      00000090H   SFRSYM    DATA     BYTE      P1
      00000080H   SFRSYM    DATA     BYTE      P0
      R15         REGSYM    ---      BYTE      Function
      WR4         REGSYM    ---      INT       outData
      R11         REGSYM    ---      BYTE      sum
      R13         REGSYM    ---      BYTE      outData_H
      R14         REGSYM    ---      BYTE      outData_L
      WR8         REGSYM    ---      INT       data1
      WR4         REGSYM    ---      INT       data2
      WR2         REGSYM    ---      INT       data3
      WR0         REGSYM    ---      INT       data4
      R10         REGSYM    ---      BYTE      sum
      R11         REGSYM    ---      BYTE      i

      ---         MODULE    ---      ---       LQ_SPI_Gyro
      00000008H   PUBLIC    EDATA    BYTE      SPI_MPU9250
      00000009H   PUBLIC    EDATA    BYTE      SPI_ICM20602
      0000000AH   PUBLIC    EDATA    BYTE      SPI_ICM42605
      0000000BH   PUBLIC    EDATA    BYTE      SPI_ICM20689
      0000000CH   PUBLIC    EDATA    BYTE      SPI_errorid
      0000000DH   PUBLIC    EDATA    INT       aacx_spi
      0000000FH   PUBLIC    EDATA    INT       aacy_spi
      00000011H   PUBLIC    EDATA    INT       aacz_spi
      00000013H   PUBLIC    EDATA    INT       magx_spi
      00000015H   PUBLIC    EDATA    INT       magy_spi
      00000017H   PUBLIC    EDATA    BYTE      Gyro_ID_SPI
      00000018H   PUBLIC    EDATA    INT       magz_spi
      0000001AH   PUBLIC    EDATA    INT       gyrox_spi
      0000001CH   PUBLIC    EDATA    INT       gyroy_spi
      0000001EH   PUBLIC    EDATA    INT       gyroz_spi
      000000D0H   SFRSYM    DATA     BYTE      PSW
      0000009DH   SFRSYM    DATA     BYTE      IRCBAND
      00000097H   SFRSYM    DATA     BYTE      AUXR2
      000000EFH   SFRSYM    DATA     BYTE      AUXINTIF
      000000FDH   SFRSYM    DATA     BYTE      S4CON
      000000ACH   SFRSYM    DATA     BYTE      S3CON
L251 LINKER/LOCATER V4.66.93.0                                                        05/26/2024  22:09:54  PAGE 26


      0000009AH   SFRSYM    DATA     BYTE      S2CON
      000000B7H   SFRSYM    DATA     BYTE      IPH
      000000CDH   SFRSYM    DATA     BYTE      SPSTAT
      000000DDH   SFRSYM    DATA     BYTE      T4T3M
      000000C1H   SFRSYM    DATA     BYTE      WDT_CONTR
      000000DFH   SFRSYM    DATA     BYTE      IP3
      000000F4H   SFRSYM    DATA     BYTE      USBCON
      000000B5H   SFRSYM    DATA     BYTE      IP2
      000000FFH   SFRSYM    DATA     BYTE      RSTCFG
      000000C7H   SFRSYM    DATA     BYTE      IAP_CONTR
      000000F9H   SFRSYM    DATA     BYTE      LINICR
      0000008EH   SFRSYM    DATA     BYTE      AUXR
      000000AFH   SFRSYM    DATA     BYTE      IE2
      00000088H   SFRSYM    DATA     BYTE      TCON
      00000089H   SFRSYM    DATA     BYTE      TMOD
      00000098H   SFRSYM    DATA     BYTE      SCON
      000000F1H   SFRSYM    DATA     BYTE      CANICR
      00000087H   SFRSYM    DATA     BYTE      PCON
      000000BCH   SFRSYM    DATA     BYTE      ADC_CONTR
      000000E7H   SFRSYM    DATA     BYTE      CMPCR2
      000000E6H   SFRSYM    DATA     BYTE      CMPCR1
      000000DEH   SFRSYM    DATA     BYTE      ADCCFG
      000000B8H   SFRSYM    DATA     BYTE      IP
      0000008FH   SFRSYM    DATA     BYTE      INTCLKO
      000000EEH   SFRSYM    DATA     BYTE      IP3H
      000000B6H   SFRSYM    DATA     BYTE      IP2H
      000000A8H   SFRSYM    DATA     BYTE      IE
      000000BBH   SFRSYM    DATA     BYTE      P_SW3
      000000BAH   SFRSYM    DATA     BYTE      P_SW2
      000000A2H   SFRSYM    DATA     BYTE      P_SW1
      000000CEH   SFRSYM    DATA     BYTE      SPCTL
      000000F8H   SFRSYM    DATA     BYTE      P7
      000000E8H   SFRSYM    DATA     BYTE      P6
      000000C8H   SFRSYM    DATA     BYTE      P5
      000000C0H   SFRSYM    DATA     BYTE      P4
      000000B0H   SFRSYM    DATA     BYTE      P3
      000000A0H   SFRSYM    DATA     BYTE      P2
      00000090H   SFRSYM    DATA     BYTE      P1
      00000080H   SFRSYM    DATA     BYTE      P0
      R7          REGSYM    ---      BYTE      reg
      R11         REGSYM    ---      BYTE      reg
      R10         REGSYM    ---      BYTE      len
      REG=7       REGSYM    ---      ---       buf
      R7          REGSYM    ---      BYTE      reg
      R6          REGSYM    ---      BYTE      value
      REG=3       REGSYM    ---      ---       ay
      R15         REGSYM    ---      BYTE      res

      ---         MODULE    ---      ---       LQ_IIC_VL53
      00000123H   PUBLIC    EDATA    BYTE      VL53_STAR
      000000D0H   SFRSYM    DATA     BYTE      PSW
      0000009DH   SFRSYM    DATA     BYTE      IRCBAND
      00000097H   SFRSYM    DATA     BYTE      AUXR2
      000000EFH   SFRSYM    DATA     BYTE      AUXINTIF
      000000FDH   SFRSYM    DATA     BYTE      S4CON
      000000ACH   SFRSYM    DATA     BYTE      S3CON
      0000009AH   SFRSYM    DATA     BYTE      S2CON
      000000B7H   SFRSYM    DATA     BYTE      IPH
      000000CDH   SFRSYM    DATA     BYTE      SPSTAT
      000000DDH   SFRSYM    DATA     BYTE      T4T3M
      000000C1H   SFRSYM    DATA     BYTE      WDT_CONTR
      000000DFH   SFRSYM    DATA     BYTE      IP3
      000000F4H   SFRSYM    DATA     BYTE      USBCON
      000000B5H   SFRSYM    DATA     BYTE      IP2
      000000FFH   SFRSYM    DATA     BYTE      RSTCFG
L251 LINKER/LOCATER V4.66.93.0                                                        05/26/2024  22:09:54  PAGE 27


      000000C7H   SFRSYM    DATA     BYTE      IAP_CONTR
      000000F9H   SFRSYM    DATA     BYTE      LINICR
      0000008EH   SFRSYM    DATA     BYTE      AUXR
      000000AFH   SFRSYM    DATA     BYTE      IE2
      00000088H   SFRSYM    DATA     BYTE      TCON
      00000089H   SFRSYM    DATA     BYTE      TMOD
      00000098H   SFRSYM    DATA     BYTE      SCON
      000000F1H   SFRSYM    DATA     BYTE      CANICR
      00000087H   SFRSYM    DATA     BYTE      PCON
      000000BCH   SFRSYM    DATA     BYTE      ADC_CONTR
      000000E7H   SFRSYM    DATA     BYTE      CMPCR2
      000000E6H   SFRSYM    DATA     BYTE      CMPCR1
      000000DEH   SFRSYM    DATA     BYTE      ADCCFG
      000000B8H   SFRSYM    DATA     BYTE      IP
      0000008FH   SFRSYM    DATA     BYTE      INTCLKO
      000000EEH   SFRSYM    DATA     BYTE      IP3H
      000000B6H   SFRSYM    DATA     BYTE      IP2H
      000000A8H   SFRSYM    DATA     BYTE      IE
      000000BBH   SFRSYM    DATA     BYTE      P_SW3
      000000BAH   SFRSYM    DATA     BYTE      P_SW2
      000000A2H   SFRSYM    DATA     BYTE      P_SW1
      000000CEH   SFRSYM    DATA     BYTE      SPCTL
      000000F8H   SFRSYM    DATA     BYTE      P7
      000000E8H   SFRSYM    DATA     BYTE      P6
      000000C8H   SFRSYM    DATA     BYTE      P5
      000000C0H   SFRSYM    DATA     BYTE      P4
      000000B0H   SFRSYM    DATA     BYTE      P3
      000000A0H   SFRSYM    DATA     BYTE      P2
      00000090H   SFRSYM    DATA     BYTE      P1
      00000080H   SFRSYM    DATA     BYTE      P0
      00FF27E0H   SYMBOL    HCONST   ---       ?tpl?0001
      R5          REGSYM    ---      BYTE      dev
      R7          REGSYM    ---      BYTE      reg
      R6          REGSYM    ---      BYTE      val
      R5          REGSYM    ---      BYTE      dev
      R7          REGSYM    ---      BYTE      reg
      R6          REGSYM    ---      BYTE      length
      REG=7       REGSYM    ---      ---       val
      WR12        REGSYM    ---      WORD      dis
      WR14        REGSYM    ---      WORD      last_dis

      ---         MODULE    ---      ---       LQ_CCD
      000000D0H   SFRSYM    DATA     BYTE      PSW
      0000009DH   SFRSYM    DATA     BYTE      IRCBAND
      00000097H   SFRSYM    DATA     BYTE      AUXR2
      000000EFH   SFRSYM    DATA     BYTE      AUXINTIF
      000000FDH   SFRSYM    DATA     BYTE      S4CON
      000000ACH   SFRSYM    DATA     BYTE      S3CON
      0000009AH   SFRSYM    DATA     BYTE      S2CON
      000000B7H   SFRSYM    DATA     BYTE      IPH
      000000CDH   SFRSYM    DATA     BYTE      SPSTAT
      000000DDH   SFRSYM    DATA     BYTE      T4T3M
      000000C1H   SFRSYM    DATA     BYTE      WDT_CONTR
      000000DFH   SFRSYM    DATA     BYTE      IP3
      000000F4H   SFRSYM    DATA     BYTE      USBCON
      000000B5H   SFRSYM    DATA     BYTE      IP2
      000000FFH   SFRSYM    DATA     BYTE      RSTCFG
      000000C7H   SFRSYM    DATA     BYTE      IAP_CONTR
      000000F9H   SFRSYM    DATA     BYTE      LINICR
      0000008EH   SFRSYM    DATA     BYTE      AUXR
      000000AFH   SFRSYM    DATA     BYTE      IE2
      000000E8H.7 SFRSYM    DATA     BIT       P67
      000000E8H.6 SFRSYM    DATA     BIT       P66
      000000E8H.5 SFRSYM    DATA     BIT       P65
      00000088H   SFRSYM    DATA     BYTE      TCON
L251 LINKER/LOCATER V4.66.93.0                                                        05/26/2024  22:09:54  PAGE 28


      00000089H   SFRSYM    DATA     BYTE      TMOD
      00000098H   SFRSYM    DATA     BYTE      SCON
      000000C0H.0 SFRSYM    DATA     BIT       P40
      000000F1H   SFRSYM    DATA     BYTE      CANICR
      00000087H   SFRSYM    DATA     BYTE      PCON
      000000BCH   SFRSYM    DATA     BYTE      ADC_CONTR
      000000E7H   SFRSYM    DATA     BYTE      CMPCR2
      000000E6H   SFRSYM    DATA     BYTE      CMPCR1
      000000DEH   SFRSYM    DATA     BYTE      ADCCFG
      000000B8H   SFRSYM    DATA     BYTE      IP
      0000008FH   SFRSYM    DATA     BYTE      INTCLKO
      000000EEH   SFRSYM    DATA     BYTE      IP3H
      000000B6H   SFRSYM    DATA     BYTE      IP2H
      000000A8H   SFRSYM    DATA     BYTE      IE
      000000BBH   SFRSYM    DATA     BYTE      P_SW3
      000000BAH   SFRSYM    DATA     BYTE      P_SW2
      000000A2H   SFRSYM    DATA     BYTE      P_SW1
      000000CEH   SFRSYM    DATA     BYTE      SPCTL
      000000F8H   SFRSYM    DATA     BYTE      P7
      000000E8H   SFRSYM    DATA     BYTE      P6
      000000C8H   SFRSYM    DATA     BYTE      P5
      000000CBH   SFRSYM    DATA     BYTE      P6M1
      000000C0H   SFRSYM    DATA     BYTE      P4
      000000CCH   SFRSYM    DATA     BYTE      P6M0
      000000B0H   SFRSYM    DATA     BYTE      P3
      000000B3H   SFRSYM    DATA     BYTE      P4M1
      000000A0H   SFRSYM    DATA     BYTE      P2
      000000B4H   SFRSYM    DATA     BYTE      P4M0
      00000090H   SFRSYM    DATA     BYTE      P1
      00000080H   SFRSYM    DATA     BYTE      P0
      00000091H   SFRSYM    DATA     BYTE      P1M1
      00000092H   SFRSYM    DATA     BYTE      P1M0
      R7          REGSYM    ---      CHAR      ccd_n
      WR6         REGSYM    ---      WORD      us
      REG=3       REGSYM    ---      ---       p
      R15         REGSYM    ---      CHAR      ccd_n
      00010000H   SYMBOL    XDATA    BYTE      count
      R14         REGSYM    ---      BYTE      i

      ---         MODULE    ---      ---       LQ_UART
      00FF1385H   PUBLIC    CODE     ---       UART1_int
      00FF11CFH   PUBLIC    CODE     ---       UART4_int
      00000020H.0 PUBLIC    BIT      BIT       busy
      00000021H   PUBLIC    EDATA    CHAR      rptr
      00000022H   PUBLIC    EDATA    INT       wptr
      00000024H   PUBLIC    EDATA    BYTE      Uart4_Receive
      00000025H   PUBLIC    EDATA    ---       buffer
      000000D0H   SFRSYM    DATA     BYTE      PSW
      0000009DH   SFRSYM    DATA     BYTE      IRCBAND
      00000097H   SFRSYM    DATA     BYTE      AUXR2
      000000EFH   SFRSYM    DATA     BYTE      AUXINTIF
      000000FDH   SFRSYM    DATA     BYTE      S4CON
      000000ACH   SFRSYM    DATA     BYTE      S3CON
      0000009AH   SFRSYM    DATA     BYTE      S2CON
      00000098H.4 SFRSYM    DATA     BIT       REN
      000000FEH   SFRSYM    DATA     BYTE      S4BUF
      000000B7H   SFRSYM    DATA     BYTE      IPH
      000000CDH   SFRSYM    DATA     BYTE      SPSTAT
      000000DDH   SFRSYM    DATA     BYTE      T4T3M
      000000C1H   SFRSYM    DATA     BYTE      WDT_CONTR
      00000088H.6 SFRSYM    DATA     BIT       TR1
      000000D3H   SFRSYM    DATA     BYTE      T4L
      000000D7H   SFRSYM    DATA     BYTE      T2L
      0000008BH   SFRSYM    DATA     BYTE      TL1
      000000D2H   SFRSYM    DATA     BYTE      T4H
L251 LINKER/LOCATER V4.66.93.0                                                        05/26/2024  22:09:54  PAGE 29


      000000D6H   SFRSYM    DATA     BYTE      T2H
      0000008DH   SFRSYM    DATA     BYTE      TH1
      000000DFH   SFRSYM    DATA     BYTE      IP3
      000000F4H   SFRSYM    DATA     BYTE      USBCON
      000000B5H   SFRSYM    DATA     BYTE      IP2
      000000FFH   SFRSYM    DATA     BYTE      RSTCFG
      000000A8H.3 SFRSYM    DATA     BIT       ET1
      000000C7H   SFRSYM    DATA     BYTE      IAP_CONTR
      000000F9H   SFRSYM    DATA     BYTE      LINICR
      0000008EH   SFRSYM    DATA     BYTE      AUXR
      000000AFH   SFRSYM    DATA     BYTE      IE2
      00000088H   SFRSYM    DATA     BYTE      TCON
      00000089H   SFRSYM    DATA     BYTE      TMOD
      00000098H   SFRSYM    DATA     BYTE      SCON
      000000F1H   SFRSYM    DATA     BYTE      CANICR
      00000087H   SFRSYM    DATA     BYTE      PCON
      00000099H   SFRSYM    DATA     BYTE      SBUF
      000000BCH   SFRSYM    DATA     BYTE      ADC_CONTR
      000000E7H   SFRSYM    DATA     BYTE      CMPCR2
      000000E6H   SFRSYM    DATA     BYTE      CMPCR1
      00000098H.1 SFRSYM    DATA     BIT       TI
      00000098H.0 SFRSYM    DATA     BIT       RI
      000000DEH   SFRSYM    DATA     BYTE      ADCCFG
      000000B8H   SFRSYM    DATA     BYTE      IP
      000000A8H.4 SFRSYM    DATA     BIT       ES
      0000008FH   SFRSYM    DATA     BYTE      INTCLKO
      000000EEH   SFRSYM    DATA     BYTE      IP3H
      000000B6H   SFRSYM    DATA     BYTE      IP2H
      000000A8H   SFRSYM    DATA     BYTE      IE
      000000BBH   SFRSYM    DATA     BYTE      P_SW3
      000000BAH   SFRSYM    DATA     BYTE      P_SW2
      000000A2H   SFRSYM    DATA     BYTE      P_SW1
      000000CEH   SFRSYM    DATA     BYTE      SPCTL
      000000F8H   SFRSYM    DATA     BYTE      P7
      000000E8H   SFRSYM    DATA     BYTE      P6
      000000C8H   SFRSYM    DATA     BYTE      P5
      000000C0H   SFRSYM    DATA     BYTE      P4
      000000B0H   SFRSYM    DATA     BYTE      P3
      000000A0H   SFRSYM    DATA     BYTE      P2
      00000090H   SFRSYM    DATA     BYTE      P1
      00000080H   SFRSYM    DATA     BYTE      P0

      00FF1385H   BLOCK     CODE     ---       LVL=0
      00FF1385H   LINE      CODE     ---       #39
      00FF138BH   LINE      CODE     ---       #41
      00FF138EH   LINE      CODE     ---       #43
      00FF1390H   LINE      CODE     ---       #44
      00FF1392H   LINE      CODE     ---       #45
      00FF1392H   LINE      CODE     ---       #46
      00FF1395H   LINE      CODE     ---       #48
      00FF1397H   LINE      CODE     ---       #49
      00FF13A9H   LINE      CODE     ---       #50
      00FF13B3H   LINE      CODE     ---       #51
      ---         BLOCKEND  ---      ---       LVL=0

      00FF11CFH   BLOCK     CODE     ---       LVL=0
      00FF11CFH   LINE      CODE     ---       #63
      00FF11D5H   LINE      CODE     ---       #65
      00FF11DAH   LINE      CODE     ---       #67
      00FF11DDH   LINE      CODE     ---       #68
      00FF11DFH   LINE      CODE     ---       #69
      00FF11DFH   LINE      CODE     ---       #70
      00FF11E4H   LINE      CODE     ---       #72
      00FF11E7H   LINE      CODE     ---       #73
      00FF11F9H   LINE      CODE     ---       #74
L251 LINKER/LOCATER V4.66.93.0                                                        05/26/2024  22:09:54  PAGE 30


      00FF1203H   LINE      CODE     ---       #75
      ---         BLOCKEND  ---      ---       LVL=0
      DR4         REGSYM    ---      DWORD     dat
      WR6         REGSYM    ---      WORD      tmr
      R7          REGSYM    ---      CHAR      dat
      REG=0       REGSYM    ---      ---       p
      REG=3       REGSYM    ---      ---       p1
      R7          REGSYM    ---      CHAR      ch
      REG=3       REGSYM    ---      ---       st
      REG=3       REGSYM    ---      ---       st
      REG=3       REGSYM    ---      ---       st
      WR4         REGSYM    ---      WORD      us
      WR6         REGSYM    ---      WORD      i

      ---         MODULE    ---      ---       LQ_Encoder
      00FF1601H   PUBLIC    CODE     ---       Timer34EncInit
      00FF0E75H   PUBLIC    CODE     ---       Read_Encoder
      00FF10FDH   PUBLIC    CODE     ---       Encoder
      000000D0H   SFRSYM    DATA     BYTE      PSW
      0000009DH   SFRSYM    DATA     BYTE      IRCBAND
      00000097H   SFRSYM    DATA     BYTE      AUXR2
      000000EFH   SFRSYM    DATA     BYTE      AUXINTIF
      000000FDH   SFRSYM    DATA     BYTE      S4CON
      000000ACH   SFRSYM    DATA     BYTE      S3CON
      0000009AH   SFRSYM    DATA     BYTE      S2CON
      000000B7H   SFRSYM    DATA     BYTE      IPH
      000000CDH   SFRSYM    DATA     BYTE      SPSTAT
      000000DDH   SFRSYM    DATA     BYTE      T4T3M
      000000C1H   SFRSYM    DATA     BYTE      WDT_CONTR
      000000D3H   SFRSYM    DATA     BYTE      T4L
      000000D5H   SFRSYM    DATA     BYTE      T3L
      000000D2H   SFRSYM    DATA     BYTE      T4H
      000000D4H   SFRSYM    DATA     BYTE      T3H
      000000DFH   SFRSYM    DATA     BYTE      IP3
      000000F4H   SFRSYM    DATA     BYTE      USBCON
      000000B5H   SFRSYM    DATA     BYTE      IP2
      000000FFH   SFRSYM    DATA     BYTE      RSTCFG
      000000C7H   SFRSYM    DATA     BYTE      IAP_CONTR
      000000F9H   SFRSYM    DATA     BYTE      LINICR
      0000008EH   SFRSYM    DATA     BYTE      AUXR
      000000AFH   SFRSYM    DATA     BYTE      IE2
      00000080H.7 SFRSYM    DATA     BIT       P07
      00000080H.5 SFRSYM    DATA     BIT       P05
      00000088H   SFRSYM    DATA     BYTE      TCON
      00000089H   SFRSYM    DATA     BYTE      TMOD
      00000098H   SFRSYM    DATA     BYTE      SCON
      000000F1H   SFRSYM    DATA     BYTE      CANICR
      00000087H   SFRSYM    DATA     BYTE      PCON
      000000BCH   SFRSYM    DATA     BYTE      ADC_CONTR
      000000E7H   SFRSYM    DATA     BYTE      CMPCR2
      000000E6H   SFRSYM    DATA     BYTE      CMPCR1
      000000DEH   SFRSYM    DATA     BYTE      ADCCFG
      000000B8H   SFRSYM    DATA     BYTE      IP
      0000008FH   SFRSYM    DATA     BYTE      INTCLKO
      000000EEH   SFRSYM    DATA     BYTE      IP3H
      000000B6H   SFRSYM    DATA     BYTE      IP2H
      000000A8H   SFRSYM    DATA     BYTE      IE
      000000BBH   SFRSYM    DATA     BYTE      P_SW3
      000000BAH   SFRSYM    DATA     BYTE      P_SW2
      000000A2H   SFRSYM    DATA     BYTE      P_SW1
      000000CEH   SFRSYM    DATA     BYTE      SPCTL
      000000F8H   SFRSYM    DATA     BYTE      P7
      000000E8H   SFRSYM    DATA     BYTE      P6
      000000C8H   SFRSYM    DATA     BYTE      P5
      000000C0H   SFRSYM    DATA     BYTE      P4
L251 LINKER/LOCATER V4.66.93.0                                                        05/26/2024  22:09:54  PAGE 31


      000000B0H   SFRSYM    DATA     BYTE      P3
      000000A0H   SFRSYM    DATA     BYTE      P2
      00000090H   SFRSYM    DATA     BYTE      P1
      00000080H   SFRSYM    DATA     BYTE      P0

      00FF0E75H   BLOCK     CODE     ---       LVL=0
      R3          REGSYM    ---      BYTE      encno
      00FF0E77H   BLOCK     CODE     NEAR LAB  LVL=1
      DR4         REGSYM    ---      LONG      tm
      ---         BLOCKEND  ---      ---       LVL=1
      00FF0E75H   LINE      CODE     ---       #9
      00FF0E77H   LINE      CODE     ---       #10
      00FF0E77H   LINE      CODE     ---       #11
      00FF0E79H   LINE      CODE     ---       #12
      00FF0E7DH   LINE      CODE     ---       #14
      00FF0E80H   LINE      CODE     ---       #15
      00FF0E86H   LINE      CODE     ---       #16
      00FF0E89H   LINE      CODE     ---       #17
      00FF0E99H   LINE      CODE     ---       #19
      00FF0EB3H   LINE      CODE     ---       #22
      00FF0EB6H   LINE      CODE     ---       #23
      00FF0EB9H   LINE      CODE     ---       #24
      00FF0EBCH   LINE      CODE     ---       #25
      00FF0EBDH   LINE      CODE     ---       #26
      00FF0EC1H   LINE      CODE     ---       #28
      00FF0EC7H   LINE      CODE     ---       #29
      00FF0ECAH   LINE      CODE     ---       #30
      00FF0EDAH   LINE      CODE     ---       #32
      00FF0EF4H   LINE      CODE     ---       #34
      00FF0EF7H   LINE      CODE     ---       #35
      00FF0EFAH   LINE      CODE     ---       #36
      00FF0EFDH   LINE      CODE     ---       #37
      00FF0F00H   LINE      CODE     ---       #38
      00FF0F00H   LINE      CODE     ---       #39
      00FF0F00H   LINE      CODE     ---       #40
      ---         BLOCKEND  ---      ---       LVL=0

      00FF1601H   BLOCK     CODE     ---       LVL=0
      00FF1601H   LINE      CODE     ---       #50
      00FF1601H   LINE      CODE     ---       #52
      00FF1604H   LINE      CODE     ---       #53
      00FF1607H   LINE      CODE     ---       #55
      00FF160AH   LINE      CODE     ---       #56
      00FF160DH   LINE      CODE     ---       #57
      00FF1610H   LINE      CODE     ---       #59
      ---         BLOCKEND  ---      ---       LVL=0
      WR14        REGSYM    ---      INT       duty
      WR12        REGSYM    ---      INT       enc2

      00FF10FDH   BLOCK     CODE     ---       LVL=0
      00FF10FFH   BLOCK     CODE     NEAR LAB  LVL=1
      000000A5H   SYMBOL    EDATA    ---       txt
      WR12        REGSYM    ---      INT       enc1
      WR14        REGSYM    ---      INT       enc2
      ---         BLOCKEND  ---      ---       LVL=1
      00FF10FDH   LINE      CODE     ---       #128
      00FF10FFH   LINE      CODE     ---       #129
      00FF10FFH   LINE      CODE     ---       #134
      00FF1106H   LINE      CODE     ---       #135
      00FF110DH   LINE      CODE     ---       #137
      00FF1120H   LINE      CODE     ---       #138
      00FF112BH   LINE      CODE     ---       #140
      00FF113EH   LINE      CODE     ---       #141
      00FF1149H   LINE      CODE     ---       #143
      ---         BLOCKEND  ---      ---       LVL=0
L251 LINKER/LOCATER V4.66.93.0                                                        05/26/2024  22:09:54  PAGE 32



      ---         MODULE    ---      ---       LQ_TIMER
      00FF1241H   PUBLIC    CODE     ---       timer0_int
      00FF1277H   PUBLIC    CODE     ---       timer1_int
      00FF12ADH   PUBLIC    CODE     ---       timer2_int
      00FF12E3H   PUBLIC    CODE     ---       timer3_int
      00FF1319H   PUBLIC    CODE     ---       timer4_int
      00FF1611H   PUBLIC    CODE     ---       Timer2_init
      00FF1564H   PUBLIC    CODE     ---       delayms
      000000D0H   SFRSYM    DATA     BYTE      PSW
      0000009DH   SFRSYM    DATA     BYTE      IRCBAND
      00000097H   SFRSYM    DATA     BYTE      AUXR2
      000000EFH   SFRSYM    DATA     BYTE      AUXINTIF
      000000FDH   SFRSYM    DATA     BYTE      S4CON
      000000ACH   SFRSYM    DATA     BYTE      S3CON
      0000009AH   SFRSYM    DATA     BYTE      S2CON
      000000B7H   SFRSYM    DATA     BYTE      IPH
      000000CDH   SFRSYM    DATA     BYTE      SPSTAT
      000000DDH   SFRSYM    DATA     BYTE      T4T3M
      000000C1H   SFRSYM    DATA     BYTE      WDT_CONTR
      00000088H.6 SFRSYM    DATA     BIT       TR1
      00000088H.4 SFRSYM    DATA     BIT       TR0
      000000D3H   SFRSYM    DATA     BYTE      T4L
      000000D5H   SFRSYM    DATA     BYTE      T3L
      000000D7H   SFRSYM    DATA     BYTE      T2L
      0000008BH   SFRSYM    DATA     BYTE      TL1
      0000008AH   SFRSYM    DATA     BYTE      TL0
      000000D2H   SFRSYM    DATA     BYTE      T4H
      000000D4H   SFRSYM    DATA     BYTE      T3H
      000000D6H   SFRSYM    DATA     BYTE      T2H
      0000008DH   SFRSYM    DATA     BYTE      TH1
      0000008CH   SFRSYM    DATA     BYTE      TH0
      000000DFH   SFRSYM    DATA     BYTE      IP3
      000000F4H   SFRSYM    DATA     BYTE      USBCON
      000000B5H   SFRSYM    DATA     BYTE      IP2
      000000FFH   SFRSYM    DATA     BYTE      RSTCFG
      000000A8H.3 SFRSYM    DATA     BIT       ET1
      000000A8H.1 SFRSYM    DATA     BIT       ET0
      000000C7H   SFRSYM    DATA     BYTE      IAP_CONTR
      000000F9H   SFRSYM    DATA     BYTE      LINICR
      0000008EH   SFRSYM    DATA     BYTE      AUXR
      000000AFH   SFRSYM    DATA     BYTE      IE2
      00000088H   SFRSYM    DATA     BYTE      TCON
      00000089H   SFRSYM    DATA     BYTE      TMOD
      00000098H   SFRSYM    DATA     BYTE      SCON
      000000F1H   SFRSYM    DATA     BYTE      CANICR
      00000087H   SFRSYM    DATA     BYTE      PCON
      000000BCH   SFRSYM    DATA     BYTE      ADC_CONTR
      000000E7H   SFRSYM    DATA     BYTE      CMPCR2
      000000E6H   SFRSYM    DATA     BYTE      CMPCR1
      000000DEH   SFRSYM    DATA     BYTE      ADCCFG
      000000B8H   SFRSYM    DATA     BYTE      IP
      0000008FH   SFRSYM    DATA     BYTE      INTCLKO
      000000EEH   SFRSYM    DATA     BYTE      IP3H
      000000B6H   SFRSYM    DATA     BYTE      IP2H
      000000A8H   SFRSYM    DATA     BYTE      IE
      000000BBH   SFRSYM    DATA     BYTE      P_SW3
      000000BAH   SFRSYM    DATA     BYTE      P_SW2
      000000A2H   SFRSYM    DATA     BYTE      P_SW1
      000000CEH   SFRSYM    DATA     BYTE      SPCTL
      000000F8H   SFRSYM    DATA     BYTE      P7
      000000E8H   SFRSYM    DATA     BYTE      P6
      000000C8H   SFRSYM    DATA     BYTE      P5
      000000C0H   SFRSYM    DATA     BYTE      P4
      000000B0H   SFRSYM    DATA     BYTE      P3
L251 LINKER/LOCATER V4.66.93.0                                                        05/26/2024  22:09:54  PAGE 33


      000000A0H   SFRSYM    DATA     BYTE      P2
      00000090H   SFRSYM    DATA     BYTE      P1
      00000080H   SFRSYM    DATA     BYTE      P0

      00FF1564H   BLOCK     CODE     ---       LVL=0
      WR4         REGSYM    ---      WORD      ms
      00FF1566H   BLOCK     CODE     NEAR LAB  LVL=1
      WR6         REGSYM    ---      WORD      i
      ---         BLOCKEND  ---      ---       LVL=1
      00FF1564H   LINE      CODE     ---       #14
      00FF1566H   LINE      CODE     ---       #15
      00FF1566H   LINE      CODE     ---       #17
      00FF1566H   LINE      CODE     ---       #18
      00FF156AH   LINE      CODE     ---       #19
      00FF1572H   LINE      CODE     ---       #20
      00FF157AH   LINE      CODE     ---       #21
      ---         BLOCKEND  ---      ---       LVL=0

      00FF1241H   BLOCK     CODE     ---       LVL=0
      00FF1241H   LINE      CODE     ---       #29
      00FF1257H   LINE      CODE     ---       #31
      00FF1260H   LINE      CODE     ---       #32
      ---         BLOCKEND  ---      ---       LVL=0

      00FF1277H   BLOCK     CODE     ---       LVL=0
      00FF1277H   LINE      CODE     ---       #41
      00FF128DH   LINE      CODE     ---       #43
      00FF1296H   LINE      CODE     ---       #44
      ---         BLOCKEND  ---      ---       LVL=0

      00FF12ADH   BLOCK     CODE     ---       LVL=0
      00FF12ADH   LINE      CODE     ---       #53
      00FF12C3H   LINE      CODE     ---       #55
      00FF12CCH   LINE      CODE     ---       #56
      ---         BLOCKEND  ---      ---       LVL=0

      00FF12E3H   BLOCK     CODE     ---       LVL=0
      00FF12E3H   LINE      CODE     ---       #65
      00FF12F9H   LINE      CODE     ---       #67
      00FF1302H   LINE      CODE     ---       #68
      ---         BLOCKEND  ---      ---       LVL=0

      00FF1319H   BLOCK     CODE     ---       LVL=0
      00FF1319H   LINE      CODE     ---       #77
      00FF132FH   LINE      CODE     ---       #79
      00FF1338H   LINE      CODE     ---       #80
      ---         BLOCKEND  ---      ---       LVL=0

      00FF1611H   BLOCK     CODE     ---       LVL=0
      00FF1611H   LINE      CODE     ---       #171
      00FF1611H   LINE      CODE     ---       #173
      00FF1614H   LINE      CODE     ---       #181
      00FF1617H   LINE      CODE     ---       #188
      00FF161AH   LINE      CODE     ---       #189
      00FF161DH   LINE      CODE     ---       #192
      00FF1620H   LINE      CODE     ---       #197
      ---         BLOCKEND  ---      ---       LVL=0

      ---         MODULE    ---      ---       LQ_MotorServo
      00FF0DE1H   PUBLIC    CODE     ---       ServoInit
      00FF1422H   PUBLIC    CODE     ---       ServoCtrl
      00FF0A03H   PUBLIC    CODE     ---       MotorInit
      00FF0F01H   PUBLIC    CODE     ---       MotorCtrl
      00000114H   PUBLIC    EDATA    WORD      PWM1_Duty
      00000116H   PUBLIC    EDATA    WORD      PWM2_Duty
L251 LINKER/LOCATER V4.66.93.0                                                        05/26/2024  22:09:54  PAGE 34


      00000118H   PUBLIC    EDATA    WORD      PWM3_Duty
      0000011AH   PUBLIC    EDATA    WORD      PWM4_Duty
      000000D0H   SFRSYM    DATA     BYTE      PSW
      0000009DH   SFRSYM    DATA     BYTE      IRCBAND
      00000097H   SFRSYM    DATA     BYTE      AUXR2
      000000EFH   SFRSYM    DATA     BYTE      AUXINTIF
      000000FDH   SFRSYM    DATA     BYTE      S4CON
      000000ACH   SFRSYM    DATA     BYTE      S3CON
      0000009AH   SFRSYM    DATA     BYTE      S2CON
      000000B7H   SFRSYM    DATA     BYTE      IPH
      000000CDH   SFRSYM    DATA     BYTE      SPSTAT
      000000DDH   SFRSYM    DATA     BYTE      T4T3M
      000000C1H   SFRSYM    DATA     BYTE      WDT_CONTR
      000000DFH   SFRSYM    DATA     BYTE      IP3
      000000F4H   SFRSYM    DATA     BYTE      USBCON
      000000B5H   SFRSYM    DATA     BYTE      IP2
      000000FFH   SFRSYM    DATA     BYTE      RSTCFG
      000000C7H   SFRSYM    DATA     BYTE      IAP_CONTR
      000000F9H   SFRSYM    DATA     BYTE      LINICR
      0000008EH   SFRSYM    DATA     BYTE      AUXR
      000000AFH   SFRSYM    DATA     BYTE      IE2
      000000F8H.7 SFRSYM    DATA     BIT       P77
      000000F8H.5 SFRSYM    DATA     BIT       P75
      00000088H   SFRSYM    DATA     BYTE      TCON
      00000089H   SFRSYM    DATA     BYTE      TMOD
      00000098H   SFRSYM    DATA     BYTE      SCON
      000000F1H   SFRSYM    DATA     BYTE      CANICR
      00000087H   SFRSYM    DATA     BYTE      PCON
      000000BCH   SFRSYM    DATA     BYTE      ADC_CONTR
      000000E7H   SFRSYM    DATA     BYTE      CMPCR2
      000000E6H   SFRSYM    DATA     BYTE      CMPCR1
      000000DEH   SFRSYM    DATA     BYTE      ADCCFG
      000000B8H   SFRSYM    DATA     BYTE      IP
      0000008FH   SFRSYM    DATA     BYTE      INTCLKO
      000000EEH   SFRSYM    DATA     BYTE      IP3H
      000000B6H   SFRSYM    DATA     BYTE      IP2H
      000000A8H   SFRSYM    DATA     BYTE      IE
      000000BBH   SFRSYM    DATA     BYTE      P_SW3
      000000BAH   SFRSYM    DATA     BYTE      P_SW2
      000000A2H   SFRSYM    DATA     BYTE      P_SW1
      000000CEH   SFRSYM    DATA     BYTE      SPCTL
      000000F8H   SFRSYM    DATA     BYTE      P7
      000000E1H   SFRSYM    DATA     BYTE      P7M1
      000000E8H   SFRSYM    DATA     BYTE      P6
      000000C8H   SFRSYM    DATA     BYTE      P5
      000000E2H   SFRSYM    DATA     BYTE      P7M0
      000000C0H   SFRSYM    DATA     BYTE      P4
      000000B0H   SFRSYM    DATA     BYTE      P3
      000000A0H   SFRSYM    DATA     BYTE      P2
      00000090H   SFRSYM    DATA     BYTE      P1
      00000080H   SFRSYM    DATA     BYTE      P0

      00FF0A03H   BLOCK     CODE     ---       LVL=0
      WR30        REGSYM    ---      WORD      freq
      00FF0A03H   LINE      CODE     ---       #115
      00FF0A07H   LINE      CODE     ---       #118
      00FF0A0AH   LINE      CODE     ---       #119
      00FF0A16H   LINE      CODE     ---       #121
      00FF0A21H   LINE      CODE     ---       #122
      00FF0A28H   LINE      CODE     ---       #124
      00FF0A36H   LINE      CODE     ---       #125
      00FF0A3DH   LINE      CODE     ---       #126
      00FF0A47H   LINE      CODE     ---       #127
      00FF0A4EH   LINE      CODE     ---       #129
      00FF0A53H   LINE      CODE     ---       #130
L251 LINKER/LOCATER V4.66.93.0                                                        05/26/2024  22:09:54  PAGE 35


      00FF0A56H   LINE      CODE     ---       #132
      00FF0A70H   LINE      CODE     ---       #133
      00FF0A7DH   LINE      CODE     ---       #135
      00FF0A86H   LINE      CODE     ---       #136
      00FF0A8FH   LINE      CODE     ---       #138
      00FF0A98H   LINE      CODE     ---       #139
      00FF0AA1H   LINE      CODE     ---       #141
      00FF0AADH   LINE      CODE     ---       #142
      00FF0AB5H   LINE      CODE     ---       #144
      00FF0ABDH   LINE      CODE     ---       #145
      00FF0AC5H   LINE      CODE     ---       #147
      00FF0ACDH   LINE      CODE     ---       #150
      00FF0AD5H   LINE      CODE     ---       #151
      00FF0ADDH   LINE      CODE     ---       #153
      00FF0AE5H   LINE      CODE     ---       #156
      00FF0AEEH   LINE      CODE     ---       #157
      00FF0AF6H   LINE      CODE     ---       #159
      00FF0AF9H   LINE      CODE     ---       #160
      00FF0AFCH   LINE      CODE     ---       #161
      00FF0B08H   LINE      CODE     ---       #163
      00FF0B0BH   LINE      CODE     ---       #164
      ---         BLOCKEND  ---      ---       LVL=0

      00FF0F01H   BLOCK     CODE     ---       LVL=0
      WR10        REGSYM    ---      INT       motor1
      WR0         REGSYM    ---      INT       motor2
      00FF0F01H   LINE      CODE     ---       #223
      00FF0F05H   LINE      CODE     ---       #225
      00FF0F0BH   LINE      CODE     ---       #227
      00FF0F11H   LINE      CODE     ---       #228
      00FF0F14H   LINE      CODE     ---       #229
      00FF0F21H   LINE      CODE     ---       #230
      00FF0F28H   LINE      CODE     ---       #231
      00FF0F2AH   LINE      CODE     ---       #233
      00FF0F2AH   LINE      CODE     ---       #234
      00FF0F2CH   LINE      CODE     ---       #237
      00FF0F2FH   LINE      CODE     ---       #238
      00FF0F3CH   LINE      CODE     ---       #239
      00FF0F43H   LINE      CODE     ---       #240
      00FF0F45H   LINE      CODE     ---       #241
      00FF0F48H   LINE      CODE     ---       #242
      00FF0F48H   LINE      CODE     ---       #244
      00FF0F4EH   LINE      CODE     ---       #246
      00FF0F54H   LINE      CODE     ---       #247
      00FF0F57H   LINE      CODE     ---       #248
      00FF0F64H   LINE      CODE     ---       #249
      00FF0F6BH   LINE      CODE     ---       #250
      00FF0F6DH   LINE      CODE     ---       #251
      00FF0F6DH   LINE      CODE     ---       #252
      00FF0F6FH   LINE      CODE     ---       #255
      00FF0F72H   LINE      CODE     ---       #256
      00FF0F7FH   LINE      CODE     ---       #257
      00FF0F86H   LINE      CODE     ---       #258
      00FF0F88H   LINE      CODE     ---       #259
      00FF0F8BH   LINE      CODE     ---       #260
      00FF0F8BH   LINE      CODE     ---       #261
      ---         BLOCKEND  ---      ---       LVL=0

      00FF0DE1H   BLOCK     CODE     ---       LVL=0
      WR30        REGSYM    ---      WORD      freq
      00FF0DE1H   LINE      CODE     ---       #305
      00FF0DE3H   LINE      CODE     ---       #307
      00FF0DE6H   LINE      CODE     ---       #309
      00FF0DF3H   LINE      CODE     ---       #310
      00FF0DFBH   LINE      CODE     ---       #311
L251 LINKER/LOCATER V4.66.93.0                                                        05/26/2024  22:09:54  PAGE 36


      00FF0E08H   LINE      CODE     ---       #312
      00FF0E0DH   LINE      CODE     ---       #314
      00FF0E27H   LINE      CODE     ---       #315
      00FF0E34H   LINE      CODE     ---       #317
      00FF0E3DH   LINE      CODE     ---       #318
      00FF0E46H   LINE      CODE     ---       #320
      00FF0E52H   LINE      CODE     ---       #321
      00FF0E5CH   LINE      CODE     ---       #323
      00FF0E65H   LINE      CODE     ---       #324
      00FF0E71H   LINE      CODE     ---       #325
      00FF0E74H   LINE      CODE     ---       #326
      ---         BLOCKEND  ---      ---       LVL=0

      00FF1422H   BLOCK     CODE     ---       LVL=0
      WR0         REGSYM    ---      WORD      duty
      00FF1422H   LINE      CODE     ---       #341
      00FF1424H   LINE      CODE     ---       #344
      00FF142AH   LINE      CODE     ---       #345
      00FF1430H   LINE      CODE     ---       #346
      00FF1436H   LINE      CODE     ---       #347
      00FF143AH   LINE      CODE     ---       #349
      00FF143DH   LINE      CODE     ---       #350
      00FF1448H   LINE      CODE     ---       #351
      00FF144FH   LINE      CODE     ---       #352
      00FF1452H   LINE      CODE     ---       #353
      ---         BLOCKEND  ---      ---       LVL=0

      ---         MODULE    ---      ---       LQ_ADC
      000000DDH   PUBLIC    EDATA    INT       right
      000000DFH   PUBLIC    EDATA    INT       left
      000000E1H   PUBLIC    EDATA    WORD      Voltage
      000000E3H   PUBLIC    EDATA    ---       ad_min
      000000EBH   PUBLIC    EDATA    ---       LnowADC
      000000F3H   PUBLIC    EDATA    ---       ad_max
      00000094H   SFRSYM    DATA     BYTE      P0M0
      000000D0H   SFRSYM    DATA     BYTE      PSW
      0000009DH   SFRSYM    DATA     BYTE      IRCBAND
      00000097H   SFRSYM    DATA     BYTE      AUXR2
      000000EFH   SFRSYM    DATA     BYTE      AUXINTIF
      000000FDH   SFRSYM    DATA     BYTE      S4CON
      000000ACH   SFRSYM    DATA     BYTE      S3CON
      0000009AH   SFRSYM    DATA     BYTE      S2CON
      000000B7H   SFRSYM    DATA     BYTE      IPH
      000000CDH   SFRSYM    DATA     BYTE      SPSTAT
      000000BEH   SFRSYM    DATA     BYTE      ADC_RESL
      000000DDH   SFRSYM    DATA     BYTE      T4T3M
      000000C1H   SFRSYM    DATA     BYTE      WDT_CONTR
      000000DFH   SFRSYM    DATA     BYTE      IP3
      000000F4H   SFRSYM    DATA     BYTE      USBCON
      000000B5H   SFRSYM    DATA     BYTE      IP2
      000000FFH   SFRSYM    DATA     BYTE      RSTCFG
      000000C7H   SFRSYM    DATA     BYTE      IAP_CONTR
      000000F9H   SFRSYM    DATA     BYTE      LINICR
      0000008EH   SFRSYM    DATA     BYTE      AUXR
      000000AFH   SFRSYM    DATA     BYTE      IE2
      00000088H   SFRSYM    DATA     BYTE      TCON
      00000089H   SFRSYM    DATA     BYTE      TMOD
      00000098H   SFRSYM    DATA     BYTE      SCON
      000000F1H   SFRSYM    DATA     BYTE      CANICR
      00000087H   SFRSYM    DATA     BYTE      PCON
      000000BCH   SFRSYM    DATA     BYTE      ADC_CONTR
      000000E7H   SFRSYM    DATA     BYTE      CMPCR2
      000000E6H   SFRSYM    DATA     BYTE      CMPCR1
      000000DEH   SFRSYM    DATA     BYTE      ADCCFG
      000000B8H   SFRSYM    DATA     BYTE      IP
L251 LINKER/LOCATER V4.66.93.0                                                        05/26/2024  22:09:54  PAGE 37


      0000008FH   SFRSYM    DATA     BYTE      INTCLKO
      000000EEH   SFRSYM    DATA     BYTE      IP3H
      000000B6H   SFRSYM    DATA     BYTE      IP2H
      000000BDH   SFRSYM    DATA     BYTE      ADC_RES
      000000A8H   SFRSYM    DATA     BYTE      IE
      000000BBH   SFRSYM    DATA     BYTE      P_SW3
      000000BAH   SFRSYM    DATA     BYTE      P_SW2
      000000A2H   SFRSYM    DATA     BYTE      P_SW1
      000000CEH   SFRSYM    DATA     BYTE      SPCTL
      000000F8H   SFRSYM    DATA     BYTE      P7
      000000E8H   SFRSYM    DATA     BYTE      P6
      000000C8H   SFRSYM    DATA     BYTE      P5
      000000C0H   SFRSYM    DATA     BYTE      P4
      000000B0H   SFRSYM    DATA     BYTE      P3
      000000A0H   SFRSYM    DATA     BYTE      P2
      00000090H   SFRSYM    DATA     BYTE      P1
      00000080H   SFRSYM    DATA     BYTE      P0
      00000091H   SFRSYM    DATA     BYTE      P1M1
      00000092H   SFRSYM    DATA     BYTE      P1M0
      00000093H   SFRSYM    DATA     BYTE      P0M1
      R10         REGSYM    ---      BYTE      ADC_Channel_x
      R14         REGSYM    ---      BYTE      ADC_Channel_x
      R15         REGSYM    ---      BYTE      times
      R13         REGSYM    ---      BYTE      t

      ---         MODULE    ---      ---       LQ_GPIO_EXIT
      00FF15A7H   PUBLIC    CODE     ---       INT0_int
      00FF15B9H   PUBLIC    CODE     ---       INT1_int
      00FF15CBH   PUBLIC    CODE     ---       INT2_int
      00FF15DDH   PUBLIC    CODE     ---       INT3_int
      00FF15EFH   PUBLIC    CODE     ---       INT4_int
      0000011CH   PUBLIC    EDATA    BYTE      INT0_cnt
      0000011DH   PUBLIC    EDATA    BYTE      INT1_cnt
      0000011EH   PUBLIC    EDATA    BYTE      INT2_cnt
      0000011FH   PUBLIC    EDATA    BYTE      INT3_cnt
      00000120H   PUBLIC    EDATA    BYTE      INT4_cnt
      000000D0H   SFRSYM    DATA     BYTE      PSW
      0000009DH   SFRSYM    DATA     BYTE      IRCBAND
      00000097H   SFRSYM    DATA     BYTE      AUXR2
      000000EFH   SFRSYM    DATA     BYTE      AUXINTIF
      000000FDH   SFRSYM    DATA     BYTE      S4CON
      000000ACH   SFRSYM    DATA     BYTE      S3CON
      0000009AH   SFRSYM    DATA     BYTE      S2CON
      000000B7H   SFRSYM    DATA     BYTE      IPH
      000000CDH   SFRSYM    DATA     BYTE      SPSTAT
      000000DDH   SFRSYM    DATA     BYTE      T4T3M
      000000C1H   SFRSYM    DATA     BYTE      WDT_CONTR
      00000088H.2 SFRSYM    DATA     BIT       IT1
      000000A8H.2 SFRSYM    DATA     BIT       EX1
      00000088H.0 SFRSYM    DATA     BIT       IT0
      000000A8H.0 SFRSYM    DATA     BIT       EX0
      000000DFH   SFRSYM    DATA     BYTE      IP3
      000000F4H   SFRSYM    DATA     BYTE      USBCON
      000000B5H   SFRSYM    DATA     BYTE      IP2
      000000FFH   SFRSYM    DATA     BYTE      RSTCFG
      000000C7H   SFRSYM    DATA     BYTE      IAP_CONTR
      000000F9H   SFRSYM    DATA     BYTE      LINICR
      0000008EH   SFRSYM    DATA     BYTE      AUXR
      000000AFH   SFRSYM    DATA     BYTE      IE2
      00000088H   SFRSYM    DATA     BYTE      TCON
      00000089H   SFRSYM    DATA     BYTE      TMOD
      00000098H   SFRSYM    DATA     BYTE      SCON
      000000F1H   SFRSYM    DATA     BYTE      CANICR
      00000087H   SFRSYM    DATA     BYTE      PCON
      000000BCH   SFRSYM    DATA     BYTE      ADC_CONTR
L251 LINKER/LOCATER V4.66.93.0                                                        05/26/2024  22:09:54  PAGE 38


      000000E7H   SFRSYM    DATA     BYTE      CMPCR2
      000000E6H   SFRSYM    DATA     BYTE      CMPCR1
      000000DEH   SFRSYM    DATA     BYTE      ADCCFG
      000000B8H   SFRSYM    DATA     BYTE      IP
      0000008FH   SFRSYM    DATA     BYTE      INTCLKO
      000000EEH   SFRSYM    DATA     BYTE      IP3H
      000000B6H   SFRSYM    DATA     BYTE      IP2H
      000000A8H   SFRSYM    DATA     BYTE      IE
      000000BBH   SFRSYM    DATA     BYTE      P_SW3
      000000BAH   SFRSYM    DATA     BYTE      P_SW2
      000000A2H   SFRSYM    DATA     BYTE      P_SW1
      000000CEH   SFRSYM    DATA     BYTE      SPCTL
      000000F8H   SFRSYM    DATA     BYTE      P7
      000000A8H.7 SFRSYM    DATA     BIT       EA
      000000E8H   SFRSYM    DATA     BYTE      P6
      000000C8H   SFRSYM    DATA     BYTE      P5
      000000C0H   SFRSYM    DATA     BYTE      P4
      000000B0H   SFRSYM    DATA     BYTE      P3
      000000A0H   SFRSYM    DATA     BYTE      P2
      00000090H   SFRSYM    DATA     BYTE      P1
      00000080H   SFRSYM    DATA     BYTE      P0

      00FF15A7H   BLOCK     CODE     ---       LVL=0
      00FF15A7H   LINE      CODE     ---       #28
      00FF15ABH   LINE      CODE     ---       #30
      00FF15B4H   LINE      CODE     ---       #31
      ---         BLOCKEND  ---      ---       LVL=0

      00FF15B9H   BLOCK     CODE     ---       LVL=0
      00FF15B9H   LINE      CODE     ---       #34
      00FF15BDH   LINE      CODE     ---       #36
      00FF15C6H   LINE      CODE     ---       #37
      ---         BLOCKEND  ---      ---       LVL=0

      00FF15CBH   BLOCK     CODE     ---       LVL=0
      00FF15CBH   LINE      CODE     ---       #40
      00FF15CFH   LINE      CODE     ---       #42
      00FF15D8H   LINE      CODE     ---       #44
      ---         BLOCKEND  ---      ---       LVL=0

      00FF15DDH   BLOCK     CODE     ---       LVL=0
      00FF15DDH   LINE      CODE     ---       #47
      00FF15E1H   LINE      CODE     ---       #49
      00FF15EAH   LINE      CODE     ---       #52
      ---         BLOCKEND  ---      ---       LVL=0

      00FF15EFH   BLOCK     CODE     ---       LVL=0
      00FF15EFH   LINE      CODE     ---       #55
      00FF15F3H   LINE      CODE     ---       #57
      00FF15FCH   LINE      CODE     ---       #58
      ---         BLOCKEND  ---      ---       LVL=0

      ---         MODULE    ---      ---       LQ_SPI_soft
      000000D0H   SFRSYM    DATA     BYTE      PSW
      0000009DH   SFRSYM    DATA     BYTE      IRCBAND
      00000097H   SFRSYM    DATA     BYTE      AUXR2
      000000EFH   SFRSYM    DATA     BYTE      AUXINTIF
      000000FDH   SFRSYM    DATA     BYTE      S4CON
      000000ACH   SFRSYM    DATA     BYTE      S3CON
      0000009AH   SFRSYM    DATA     BYTE      S2CON
      000000B7H   SFRSYM    DATA     BYTE      IPH
      000000CDH   SFRSYM    DATA     BYTE      SPSTAT
      000000DDH   SFRSYM    DATA     BYTE      T4T3M
      000000C1H   SFRSYM    DATA     BYTE      WDT_CONTR
      000000DFH   SFRSYM    DATA     BYTE      IP3
L251 LINKER/LOCATER V4.66.93.0                                                        05/26/2024  22:09:54  PAGE 39


      000000F4H   SFRSYM    DATA     BYTE      USBCON
      000000B5H   SFRSYM    DATA     BYTE      IP2
      000000FFH   SFRSYM    DATA     BYTE      RSTCFG
      000000C7H   SFRSYM    DATA     BYTE      IAP_CONTR
      000000F9H   SFRSYM    DATA     BYTE      LINICR
      0000008EH   SFRSYM    DATA     BYTE      AUXR
      000000AFH   SFRSYM    DATA     BYTE      IE2
      000000A0H.5 SFRSYM    DATA     BIT       P25
      000000A0H.4 SFRSYM    DATA     BIT       P24
      00000088H   SFRSYM    DATA     BYTE      TCON
      00000089H   SFRSYM    DATA     BYTE      TMOD
      000000A0H.3 SFRSYM    DATA     BIT       P23
      00000098H   SFRSYM    DATA     BYTE      SCON
      000000A0H.2 SFRSYM    DATA     BIT       P22
      000000F1H   SFRSYM    DATA     BYTE      CANICR
      00000087H   SFRSYM    DATA     BYTE      PCON
      000000BCH   SFRSYM    DATA     BYTE      ADC_CONTR
      000000E7H   SFRSYM    DATA     BYTE      CMPCR2
      000000E6H   SFRSYM    DATA     BYTE      CMPCR1
      000000DEH   SFRSYM    DATA     BYTE      ADCCFG
      000000B8H   SFRSYM    DATA     BYTE      IP
      0000008FH   SFRSYM    DATA     BYTE      INTCLKO
      000000EEH   SFRSYM    DATA     BYTE      IP3H
      000000B6H   SFRSYM    DATA     BYTE      IP2H
      000000A8H   SFRSYM    DATA     BYTE      IE
      000000BBH   SFRSYM    DATA     BYTE      P_SW3
      000000BAH   SFRSYM    DATA     BYTE      P_SW2
      000000A2H   SFRSYM    DATA     BYTE      P_SW1
      000000CEH   SFRSYM    DATA     BYTE      SPCTL
      000000F8H   SFRSYM    DATA     BYTE      P7
      000000E8H   SFRSYM    DATA     BYTE      P6
      000000C8H   SFRSYM    DATA     BYTE      P5
      000000C0H   SFRSYM    DATA     BYTE      P4
      000000B0H   SFRSYM    DATA     BYTE      P3
      000000A0H   SFRSYM    DATA     BYTE      P2
      00000090H   SFRSYM    DATA     BYTE      P1
      00000095H   SFRSYM    DATA     BYTE      P2M1
      00000080H   SFRSYM    DATA     BYTE      P0
      00000096H   SFRSYM    DATA     BYTE      P2M0
      REG=7       REGSYM    ---      ---       lqbuff
      WR8         REGSYM    ---      WORD      len
      R10         REGSYM    ---      BYTE      i
      R7          REGSYM    ---      BYTE      reg
      REG=3       REGSYM    ---      ---       buf
      WR6         REGSYM    ---      WORD      i
      R11         REGSYM    ---      BYTE      reg
      R10         REGSYM    ---      BYTE      value
      R7          REGSYM    ---      BYTE      reg
      REG=3       REGSYM    ---      ---       ay
      R15         REGSYM    ---      BYTE      res

      ---         MODULE    ---      ---       LQ_SOFTI2C
      00FF0D47H   PUBLIC    CODE     ---       IIC_ReadMultByteFromSlave
      00FF150AH   PUBLIC    CODE     ---       IIC_NAck
      00FF120AH   PUBLIC    CODE     ---       IIC_WriteByteToSlave
      00FF163DH   PUBLIC    CODE     ---       iic_delay
      00FF152BH   PUBLIC    CODE     ---       IIC_Ack
      00FF1453H   PUBLIC    CODE     ---       IIC_Start
      00FF1190H   PUBLIC    CODE     ---       IIC_ReadByte
      00FF134FH   PUBLIC    CODE     ---       IIC_SendByte
      00FF0026H   PUBLIC    CODE     ---       IIC_WaitAck
      00FF14E7H   PUBLIC    CODE     ---       IIC_Stop
      000000D0H   SFRSYM    DATA     BYTE      PSW
      0000009DH   SFRSYM    DATA     BYTE      IRCBAND
      00000097H   SFRSYM    DATA     BYTE      AUXR2
L251 LINKER/LOCATER V4.66.93.0                                                        05/26/2024  22:09:54  PAGE 40


      000000EFH   SFRSYM    DATA     BYTE      AUXINTIF
      000000FDH   SFRSYM    DATA     BYTE      S4CON
      000000ACH   SFRSYM    DATA     BYTE      S3CON
      0000009AH   SFRSYM    DATA     BYTE      S2CON
      000000B7H   SFRSYM    DATA     BYTE      IPH
      000000CDH   SFRSYM    DATA     BYTE      SPSTAT
      000000DDH   SFRSYM    DATA     BYTE      T4T3M
      000000C1H   SFRSYM    DATA     BYTE      WDT_CONTR
      000000DFH   SFRSYM    DATA     BYTE      IP3
      000000F4H   SFRSYM    DATA     BYTE      USBCON
      000000B5H   SFRSYM    DATA     BYTE      IP2
      000000FFH   SFRSYM    DATA     BYTE      RSTCFG
      000000C7H   SFRSYM    DATA     BYTE      IAP_CONTR
      000000F9H   SFRSYM    DATA     BYTE      LINICR
      0000008EH   SFRSYM    DATA     BYTE      AUXR
      000000AFH   SFRSYM    DATA     BYTE      IE2
      00000090H.5 SFRSYM    DATA     BIT       P15
      00000088H   SFRSYM    DATA     BYTE      TCON
      00000089H   SFRSYM    DATA     BYTE      TMOD
      00000090H.4 SFRSYM    DATA     BIT       P14
      00000098H   SFRSYM    DATA     BYTE      SCON
      000000F1H   SFRSYM    DATA     BYTE      CANICR
      00000087H   SFRSYM    DATA     BYTE      PCON
      000000BCH   SFRSYM    DATA     BYTE      ADC_CONTR
      000000E7H   SFRSYM    DATA     BYTE      CMPCR2
      000000E6H   SFRSYM    DATA     BYTE      CMPCR1
      000000DEH   SFRSYM    DATA     BYTE      ADCCFG
      000000B8H   SFRSYM    DATA     BYTE      IP
      0000008FH   SFRSYM    DATA     BYTE      INTCLKO
      000000EEH   SFRSYM    DATA     BYTE      IP3H
      000000B6H   SFRSYM    DATA     BYTE      IP2H
      000000A8H   SFRSYM    DATA     BYTE      IE
      000000BBH   SFRSYM    DATA     BYTE      P_SW3
      000000BAH   SFRSYM    DATA     BYTE      P_SW2
      000000A2H   SFRSYM    DATA     BYTE      P_SW1
      000000CEH   SFRSYM    DATA     BYTE      SPCTL
      000000F8H   SFRSYM    DATA     BYTE      P7
      000000E8H   SFRSYM    DATA     BYTE      P6
      000000C8H   SFRSYM    DATA     BYTE      P5
      000000C0H   SFRSYM    DATA     BYTE      P4
      000000B0H   SFRSYM    DATA     BYTE      P3
      000000A0H   SFRSYM    DATA     BYTE      P2
      00000090H   SFRSYM    DATA     BYTE      P1
      00000080H   SFRSYM    DATA     BYTE      P0
      00000091H   SFRSYM    DATA     BYTE      P1M1
      00000092H   SFRSYM    DATA     BYTE      P1M0

      00FF163DH   BLOCK     CODE     ---       LVL=0
      R7          REGSYM    ---      BYTE      i
      00FF163DH   LINE      CODE     ---       #31
      00FF163DH   LINE      CODE     ---       #32
      00FF163DH   LINE      CODE     ---       #35
      00FF163DH   LINE      CODE     ---       #36
      00FF163FH   LINE      CODE     ---       #38
      00FF1640H   LINE      CODE     ---       #39
      00FF1647H   LINE      CODE     ---       #40
      ---         BLOCKEND  ---      ---       LVL=0

      00FF1453H   BLOCK     CODE     ---       LVL=0
      00FF1453H   LINE      CODE     ---       #66
      00FF1453H   LINE      CODE     ---       #68
      00FF1459H   LINE      CODE     ---       #69
      00FF145BH   LINE      CODE     ---       #70
      00FF145DH   LINE      CODE     ---       #71
      00FF1460H   LINE      CODE     ---       #72
L251 LINKER/LOCATER V4.66.93.0                                                        05/26/2024  22:09:54  PAGE 41


      00FF1463H   LINE      CODE     ---       #73
      00FF1466H   LINE      CODE     ---       #74
      00FF1469H   LINE      CODE     ---       #75
      00FF146CH   LINE      CODE     ---       #76
      00FF146EH   LINE      CODE     ---       #77
      00FF1471H   LINE      CODE     ---       #78
      00FF1474H   LINE      CODE     ---       #79
      00FF1477H   LINE      CODE     ---       #80
      00FF1479H   LINE      CODE     ---       #81
      ---         BLOCKEND  ---      ---       LVL=0

      00FF14E7H   BLOCK     CODE     ---       LVL=0
      00FF14E7H   LINE      CODE     ---       #92
      00FF14E7H   LINE      CODE     ---       #94
      00FF14EDH   LINE      CODE     ---       #95
      00FF14EFH   LINE      CODE     ---       #96
      00FF14F1H   LINE      CODE     ---       #97
      00FF14F4H   LINE      CODE     ---       #98
      00FF14F7H   LINE      CODE     ---       #99
      00FF14FAH   LINE      CODE     ---       #100
      00FF14FCH   LINE      CODE     ---       #101
      00FF14FFH   LINE      CODE     ---       #102
      00FF1502H   LINE      CODE     ---       #103
      00FF1505H   LINE      CODE     ---       #104
      00FF1507H   LINE      CODE     ---       #105
      ---         BLOCKEND  ---      ---       LVL=0

      00FF0026H   BLOCK     CODE     ---       LVL=0
      00FF0028H   BLOCK     CODE     NEAR LAB  LVL=1
      R15         REGSYM    ---      BYTE      ucErrTime
      ---         BLOCKEND  ---      ---       LVL=1
      00FF0026H   LINE      CODE     ---       #117
      00FF0028H   LINE      CODE     ---       #118
      00FF0028H   LINE      CODE     ---       #119
      00FF002AH   LINE      CODE     ---       #120
      00FF0030H   LINE      CODE     ---       #121
      00FF0035H   LINE      CODE     ---       #122
      00FF003AH   LINE      CODE     ---       #123
      00FF003CH   LINE      CODE     ---       #125
      00FF003EH   LINE      CODE     ---       #126
      00FF0043H   LINE      CODE     ---       #128
      00FF0046H   LINE      CODE     ---       #129
      00FF004AH   LINE      CODE     ---       #130
      00FF004DH   LINE      CODE     ---       #132
      00FF004FH   LINE      CODE     ---       #133
      00FF0050H   LINE      CODE     ---       #134
      ---         BLOCKEND  ---      ---       LVL=0

      00FF152BH   BLOCK     CODE     ---       LVL=0
      00FF152BH   LINE      CODE     ---       #144
      00FF152BH   LINE      CODE     ---       #146
      00FF152DH   LINE      CODE     ---       #147
      00FF1533H   LINE      CODE     ---       #148
      00FF1535H   LINE      CODE     ---       #149
      00FF1538H   LINE      CODE     ---       #150
      00FF153BH   LINE      CODE     ---       #151
      00FF153EH   LINE      CODE     ---       #152
      00FF1540H   LINE      CODE     ---       #153
      00FF1543H   LINE      CODE     ---       #154
      00FF1546H   LINE      CODE     ---       #155
      00FF1549H   LINE      CODE     ---       #156
      00FF154BH   LINE      CODE     ---       #157
      ---         BLOCKEND  ---      ---       LVL=0

      00FF150AH   BLOCK     CODE     ---       LVL=0
L251 LINKER/LOCATER V4.66.93.0                                                        05/26/2024  22:09:54  PAGE 42


      00FF150AH   LINE      CODE     ---       #168
      00FF150AH   LINE      CODE     ---       #170
      00FF150CH   LINE      CODE     ---       #171
      00FF1512H   LINE      CODE     ---       #172
      00FF1514H   LINE      CODE     ---       #173
      00FF1517H   LINE      CODE     ---       #174
      00FF151AH   LINE      CODE     ---       #175
      00FF151DH   LINE      CODE     ---       #176
      00FF151FH   LINE      CODE     ---       #177
      00FF1522H   LINE      CODE     ---       #178
      00FF1525H   LINE      CODE     ---       #179
      00FF1528H   LINE      CODE     ---       #180
      00FF152AH   LINE      CODE     ---       #181
      ---         BLOCKEND  ---      ---       LVL=0

      00FF134FH   BLOCK     CODE     ---       LVL=0
      R15         REGSYM    ---      BYTE      data_t
      00FF1353H   BLOCK     CODE     NEAR LAB  LVL=1
      R14         REGSYM    ---      BYTE      t
      ---         BLOCKEND  ---      ---       LVL=1
      00FF134FH   LINE      CODE     ---       #192
      00FF1353H   LINE      CODE     ---       #193
      00FF1353H   LINE      CODE     ---       #195
      00FF1359H   LINE      CODE     ---       #196
      00FF135BH   LINE      CODE     ---       #197
      00FF135EH   LINE      CODE     ---       #200
      00FF1363H   LINE      CODE     ---       #202
      00FF1365H   LINE      CODE     ---       #203
      00FF1367H   LINE      CODE     ---       #206
      00FF1369H   LINE      CODE     ---       #207
      00FF1369H   LINE      CODE     ---       #209
      00FF136BH   LINE      CODE     ---       #210
      00FF136EH   LINE      CODE     ---       #211
      00FF1370H   LINE      CODE     ---       #212
      00FF1373H   LINE      CODE     ---       #213
      00FF1376H   LINE      CODE     ---       #214
      00FF1378H   LINE      CODE     ---       #215
      00FF137BH   LINE      CODE     ---       #216
      00FF137FH   LINE      CODE     ---       #217
      00FF1382H   LINE      CODE     ---       #218
      ---         BLOCKEND  ---      ---       LVL=0

      00FF1190H   BLOCK     CODE     ---       LVL=0
      R15         REGSYM    ---      BYTE      ack
      00FF1196H   BLOCK     CODE     NEAR LAB  LVL=1
      R13         REGSYM    ---      BYTE      i
      R14         REGSYM    ---      BYTE      receive
      ---         BLOCKEND  ---      ---       LVL=1
      00FF1190H   LINE      CODE     ---       #229
      00FF1196H   LINE      CODE     ---       #230
      00FF1196H   LINE      CODE     ---       #231
      00FF1198H   LINE      CODE     ---       #232
      00FF119EH   LINE      CODE     ---       #233
      00FF11A1H   LINE      CODE     ---       #235
      00FF11A3H   LINE      CODE     ---       #236
      00FF11A6H   LINE      CODE     ---       #237
      00FF11A9H   LINE      CODE     ---       #238
      00FF11ACH   LINE      CODE     ---       #239
      00FF11AEH   LINE      CODE     ---       #240
      00FF11B0H   LINE      CODE     ---       #241
      00FF11B5H   LINE      CODE     ---       #242
      00FF11B8H   LINE      CODE     ---       #243
      00FF11BCH   LINE      CODE     ---       #244
      00FF11C0H   LINE      CODE     ---       #245
      00FF11C5H   LINE      CODE     ---       #247
L251 LINKER/LOCATER V4.66.93.0                                                        05/26/2024  22:09:54  PAGE 43


      00FF11C8H   LINE      CODE     ---       #248
      00FF11CAH   LINE      CODE     ---       #249
      ---         BLOCKEND  ---      ---       LVL=0
      R15         REGSYM    ---      BYTE      I2C_Addr
      R14         REGSYM    ---      BYTE      reg

      00FF120AH   BLOCK     CODE     ---       LVL=0
      R11         REGSYM    ---      BYTE      I2C_Addr
      R14         REGSYM    ---      BYTE      reg
      R15         REGSYM    ---      BYTE      data_t
      00FF120AH   LINE      CODE     ---       #295
      00FF1212H   LINE      CODE     ---       #297
      00FF1215H   LINE      CODE     ---       #298
      00FF1218H   LINE      CODE     ---       #299
      00FF121DH   LINE      CODE     ---       #301
      00FF121DH   LINE      CODE     ---       #302
      00FF121FH   LINE      CODE     ---       #303
      00FF121FH   LINE      CODE     ---       #304
      00FF1224H   LINE      CODE     ---       #305
      00FF1227H   LINE      CODE     ---       #306
      00FF122CH   LINE      CODE     ---       #307
      00FF1231H   LINE      CODE     ---       #309
      00FF1234H   LINE      CODE     ---       #310
      00FF1238H   LINE      CODE     ---       #311
      00FF1238H   LINE      CODE     ---       #312
      00FF123BH   LINE      CODE     ---       #315
      00FF123CH   LINE      CODE     ---       #316
      ---         BLOCKEND  ---      ---       LVL=0

      00FF0D47H   BLOCK     CODE     ---       LVL=0
      000000A6H   SYMBOL    EDATA    BYTE      dev
      000000A7H   SYMBOL    EDATA    BYTE      reg
      000000A8H   SYMBOL    EDATA    BYTE      length
      REG=3       REGSYM    ---      ---       data_t
      00FF0D57H   BLOCK     CODE     NEAR LAB  LVL=1
      000000A9H   SYMBOL    EDATA    BYTE      count
      000000AAH   SYMBOL    EDATA    BYTE      temp
      ---         BLOCKEND  ---      ---       LVL=1
      00FF0D47H   LINE      CODE     ---       #330
      00FF0D57H   LINE      CODE     ---       #331
      00FF0D57H   LINE      CODE     ---       #332
      00FF0D5CH   LINE      CODE     ---       #334
      00FF0D5FH   LINE      CODE     ---       #335
      00FF0D66H   LINE      CODE     ---       #336
      00FF0D6BH   LINE      CODE     ---       #338
      00FF0D6EH   LINE      CODE     ---       #339
      00FF0D72H   LINE      CODE     ---       #340
      00FF0D72H   LINE      CODE     ---       #341
      00FF0D79H   LINE      CODE     ---       #342
      00FF0D7CH   LINE      CODE     ---       #343
      00FF0D7FH   LINE      CODE     ---       #344
      00FF0D8BH   LINE      CODE     ---       #345
      00FF0D92H   LINE      CODE     ---       #346
      00FF0D95H   LINE      CODE     ---       #347
      00FF0D98H   LINE      CODE     ---       #349
      00FF0DAAH   LINE      CODE     ---       #350
      00FF0DAEH   LINE      CODE     ---       #352
      00FF0DB6H   LINE      CODE     ---       #354
      00FF0DC7H   LINE      CODE     ---       #355
      00FF0DDAH   LINE      CODE     ---       #356
      00FF0DDDH   LINE      CODE     ---       #358
      00FF0DDEH   LINE      CODE     ---       #359
      ---         BLOCKEND  ---      ---       LVL=0
      REG=3       REGSYM    ---      ---       data_t
      REG=3       REGSYM    ---      ---       dat
L251 LINKER/LOCATER V4.66.93.0                                                        05/26/2024  22:09:54  PAGE 44


      REG=3       REGSYM    ---      ---       buf

      ---         MODULE    ---      ---       main
      00FF1015H   PUBLIC    CODE     ---       sysinit
      00FF154CH   PUBLIC    CODE     ---       main
      00000094H   SFRSYM    DATA     BYTE      P0M0
      000000D0H   SFRSYM    DATA     BYTE      PSW
      0000009DH   SFRSYM    DATA     BYTE      IRCBAND
      00000097H   SFRSYM    DATA     BYTE      AUXR2
      000000EFH   SFRSYM    DATA     BYTE      AUXINTIF
      000000FDH   SFRSYM    DATA     BYTE      S4CON
      000000ACH   SFRSYM    DATA     BYTE      S3CON
      0000009AH   SFRSYM    DATA     BYTE      S2CON
      000000B7H   SFRSYM    DATA     BYTE      IPH
      000000CDH   SFRSYM    DATA     BYTE      SPSTAT
      000000DDH   SFRSYM    DATA     BYTE      T4T3M
      000000C1H   SFRSYM    DATA     BYTE      WDT_CONTR
      000000E9H   SFRSYM    DATA     BYTE      WTST
      000000DFH   SFRSYM    DATA     BYTE      IP3
      000000F4H   SFRSYM    DATA     BYTE      USBCON
      000000B5H   SFRSYM    DATA     BYTE      IP2
      000000FFH   SFRSYM    DATA     BYTE      RSTCFG
      000000C7H   SFRSYM    DATA     BYTE      IAP_CONTR
      000000F9H   SFRSYM    DATA     BYTE      LINICR
      0000008EH   SFRSYM    DATA     BYTE      AUXR
      000000AFH   SFRSYM    DATA     BYTE      IE2
      00000088H   SFRSYM    DATA     BYTE      TCON
      00000089H   SFRSYM    DATA     BYTE      TMOD
      00000098H   SFRSYM    DATA     BYTE      SCON
      000000C0H.0 SFRSYM    DATA     BIT       P40
      000000F1H   SFRSYM    DATA     BYTE      CANICR
      00000087H   SFRSYM    DATA     BYTE      PCON
      000000BCH   SFRSYM    DATA     BYTE      ADC_CONTR
      000000E7H   SFRSYM    DATA     BYTE      CMPCR2
      000000E6H   SFRSYM    DATA     BYTE      CMPCR1
      000000DEH   SFRSYM    DATA     BYTE      ADCCFG
      000000B8H   SFRSYM    DATA     BYTE      IP
      0000008FH   SFRSYM    DATA     BYTE      INTCLKO
      000000EEH   SFRSYM    DATA     BYTE      IP3H
      000000B6H   SFRSYM    DATA     BYTE      IP2H
      000000A8H   SFRSYM    DATA     BYTE      IE
      000000BBH   SFRSYM    DATA     BYTE      P_SW3
      000000BAH   SFRSYM    DATA     BYTE      P_SW2
      000000A2H   SFRSYM    DATA     BYTE      P_SW1
      000000CEH   SFRSYM    DATA     BYTE      SPCTL
      000000F8H   SFRSYM    DATA     BYTE      P7
      000000A8H.7 SFRSYM    DATA     BIT       EA
      000000E1H   SFRSYM    DATA     BYTE      P7M1
      000000E8H   SFRSYM    DATA     BYTE      P6
      000000C8H   SFRSYM    DATA     BYTE      P5
      000000CBH   SFRSYM    DATA     BYTE      P6M1
      000000E2H   SFRSYM    DATA     BYTE      P7M0
      000000C0H   SFRSYM    DATA     BYTE      P4
      000000C9H   SFRSYM    DATA     BYTE      P5M1
      000000CCH   SFRSYM    DATA     BYTE      P6M0
      000000B0H   SFRSYM    DATA     BYTE      P3
      000000B3H   SFRSYM    DATA     BYTE      P4M1
      000000CAH   SFRSYM    DATA     BYTE      P5M0
      000000A0H   SFRSYM    DATA     BYTE      P2
      000000B1H   SFRSYM    DATA     BYTE      P3M1
      000000B4H   SFRSYM    DATA     BYTE      P4M0
      00000090H   SFRSYM    DATA     BYTE      P1
      000000B2H   SFRSYM    DATA     BYTE      P3M0
      00000080H   SFRSYM    DATA     BYTE      P0
      00000091H   SFRSYM    DATA     BYTE      P1M1
L251 LINKER/LOCATER V4.66.93.0                                                        05/26/2024  22:09:54  PAGE 45


      00000092H   SFRSYM    DATA     BYTE      P1M0
      00000093H   SFRSYM    DATA     BYTE      P0M1

      00FF1015H   BLOCK     CODE     ---       LVL=0
      00FF1015H   LINE      CODE     ---       #11
      00FF1015H   LINE      CODE     ---       #13
      00FF1018H   LINE      CODE     ---       #14
      00FF101BH   LINE      CODE     ---       #15
      00FF1027H   LINE      CODE     ---       #16
      00FF102AH   LINE      CODE     ---       #17
      00FF102DH   LINE      CODE     ---       #18
      00FF1033H   LINE      CODE     ---       #19
      00FF103CH   LINE      CODE     ---       #20
      00FF1042H   LINE      CODE     ---       #21
      00FF1048H   LINE      CODE     ---       #22
      00FF104EH   LINE      CODE     ---       #23
      00FF1054H   LINE      CODE     ---       #24
      00FF105AH   LINE      CODE     ---       #25
      00FF1060H   LINE      CODE     ---       #26
      00FF1069H   LINE      CODE     ---       #27
      00FF106BH   LINE      CODE     ---       #28
      00FF106DH   LINE      CODE     ---       #31
      00FF1070H   LINE      CODE     ---       #32
      00FF1073H   LINE      CODE     ---       #33
      00FF1076H   LINE      CODE     ---       #34
      00FF107DH   LINE      CODE     ---       #35
      00FF1084H   LINE      CODE     ---       #36
      00FF1087H   LINE      CODE     ---       #37
      00FF108AH   LINE      CODE     ---       #38
      ---         BLOCKEND  ---      ---       LVL=0

      00FF154CH   BLOCK     CODE     ---       LVL=0
      00FF154CH   LINE      CODE     ---       #53
      00FF154CH   LINE      CODE     ---       #55
      00FF154FH   LINE      CODE     ---       #56
      00FF1558H   LINE      CODE     ---       #57
      00FF155FH   LINE      CODE     ---       #59
      00FF155FH   LINE      CODE     ---       #61
      00FF1562H   LINE      CODE     ---       #64
      ---         BLOCKEND  ---      ---       LVL=0

      ---         MODULE    ---      ---       ?C?FPADD
      00FF00ACH   PUBLIC    CODE     ---       ?C?FPADD
      00FF00A9H   PUBLIC    CODE     ---       ?C?FPSUB

      ---         MODULE    ---      ---       ?C?FPDIV
      00FF0164H   PUBLIC    CODE     ---       ?C?FPDIV

      ---         MODULE    ---      ---       ?C?FCAST
      00FF01EFH   PUBLIC    CODE     NEAR LAB  ?C?FCASTC
      00FF01EAH   PUBLIC    CODE     NEAR LAB  ?C?FCASTI
      00FF01E5H   PUBLIC    CODE     NEAR LAB  ?C?FCASTL

      ---         MODULE    ---      ---       ?C?CASTF
      00FF0222H   PUBLIC    CODE     NEAR LAB  ?C?CASTF

      ---         MODULE    ---      ---       SPRINTF
      000000DDH   PUBLIC    EDATA    ---       ?SPRINTF?BYTE
      00FF025FH   PUBLIC    CODE     NEAR LAB  SPRINTF

      ---         MODULE    ---      ---       ?C?FPGETOPN
      00FF027FH   PUBLIC    CODE     ---       ?C?FPGETOPN2
      00FF02BCH   PUBLIC    CODE     ---       ?C?FPNANRESULT
      00FF02C4H   PUBLIC    CODE     ---       ?C?FPOVERFLOW
      00FF0298H   PUBLIC    CODE     ---       ?C?FPRESULT
L251 LINKER/LOCATER V4.66.93.0                                                        05/26/2024  22:09:54  PAGE 46


      00FF02AEH   PUBLIC    CODE     ---       ?C?FPRESULT2
      00FF02C1H   PUBLIC    CODE     ---       ?C?FPUNDERFLOW

      ---         MODULE    ---      ---       ?C?PRNFMT
      00FF02FDH   PUBLIC    CODE     ---       ?C?PRNFMT

      ---         MODULE    ---      ---       ?C?FPCONVERT
      00FF071AH   PUBLIC    CODE     ---       ?C?FPCONVERT
      00FF07D2H   PUBLIC    CODE     ---       ?C?FPROUND

      ---         MODULE    ---      ---       ?C?FPMUL
      00FF0815H   PUBLIC    CODE     ---       ?C?FPMUL

      ---         MODULE    ---      ---       ?C?FTNPWR
      00FF08E5H   PUBLIC    CODE     ---       ?C?FTNPWR

      ---         MODULE    ---      ---       ?C_START
      00FF0000H   PUBLIC    CODE     ---       ?C?STARTUP
      00FF0000H   PUBLIC    CODE     ---       ?C_STARTUP

      ---         MODULE    ---      ---       ?C?INITEDATA
      00FF10A0H   PUBLIC    CODE     ---       ?C?INITEDATA

      ---         MODULE    ---      ---       ?C?INITHDATA
      00FF10C9H   PUBLIC    CODE     ---       ?C?INITHDATA

      ---         MODULE    ---      ---       ?C?SIDIV
      00FF091CH   PUBLIC    CODE     ---       ?C?SIDIV

      ---         MODULE    ---      ---       ?C?LIMUL
      00FF094EH   PUBLIC    CODE     ---       ?C?LIMUL

      ---         MODULE    ---      ---       ?C?ULDIV
      00FF0959H   PUBLIC    CODE     NEAR LAB  ?C?ULDIV
      00FF0957H   PUBLIC    CODE     NEAR LAB  ?C?ULIDIV

      ---         MODULE    ---      ---       ?C?SLDIV
      00FF09AAH   PUBLIC    CODE     NEAR LAB  ?C?SLDIV

      ---         MODULE    ---      ---       ?C?BMOVENP
      00FF09E0H   PUBLIC    CODE     ---       ?C?BMOVENP
      00FF09DEH   PUBLIC    CODE     ---       ?C?BMOVENP8

      ---         MODULE    ---      ---       ?C?INITEDATA_END
      00FF268CH   PUBLIC    HCONST   WORD      ?C?INITEDATA_END

      ---         MODULE    ---      ---       ?C?INITHDATA_END
      00FF2820H   PUBLIC    HCONST   WORD      ?C?INITHDATA_END

Program Size: data=8.1 edata+hdata=539 xdata=1 const=4574 code=5673
L251 RUN COMPLETE.  0 WARNING(S),  0 ERROR(S)
